Microchip Technology Inc, vv3_24 (A) =

Tool Name:
  c:\program files\microchip\mplab c30\bin\bin\..\bin/pic30-coff-ld.exe

Command:
  -p24FJ256GA106 \
  -oC:\projects\COMPOSE_Hackathon\Obj\a.cof \
  -LC:\Program Files\FlyPort IDE\Microchip\TCPIP Stack\BigInt_helper_coff.a \
  -LC:\Program Files\FlyPort IDE\Microchip\TCPIP Stack\BigInt_helper_elf.a \
  -LC:\Program Files\FlyPort IDE\c30\support\gld \
  -LC:\Program Files\FlyPort IDE\c30\lib \
  -LC:\Program Files\FlyPort IDE\c30\lib\pic24f \
  -Lc:/program files/microchip/mplab c30/bin/bin/.. \
  -Lc:/program files/microchip/mplab c30/bin/bin/../../lib \
  -Lc:/program files/microchip/mplab c30/bin/bin/../../support/generic/gld \
  -Lc:/program files/microchip/mplab c30/bin/bin/../../lib/PIC24F \
  -Lc:/program files/microchip/mplab c30/bin/bin/../../support/PIC24F/gld \
  -Lc:/program files/microchip/mplab c30/bin/bin/../../lib/PIC24H \
  -Lc:/program files/microchip/mplab c30/bin/bin/../../support/PIC24H/gld \
  -Lc:/program files/microchip/mplab c30/bin/bin/../../lib/dsPIC30F \
  -Lc:/program files/microchip/mplab c30/bin/bin/../../support/dsPIC30F/gld \
  -Lc:/program files/microchip/mplab c30/bin/bin/../../lib/dsPIC33F \
  -Lc:/program files/microchip/mplab c30/bin/bin/../../support/dsPIC33F/gld \
  Announce.o \
  ARP.o \
  ARPlib.o \
  BigInt.o \
  Delay.o \
  DHCP.o \
  DHCPs.o \
  DNS.o \
  DNSs.o \
  DynDNS.o \
  ENCX24J600.o \
  FTP.o \
  FTPlib.o \
  Hashes.o \
  heap_2.o \
  Helpers.o \
  HTTP2.o \
  HWInit.o \
  HWlib.o \
  ICMP.o \
  INTlib.o \
  IP.o \
  ISRs.o \
  list.o \
  Main.o \
  MPFS2.o \
  NBNS.o \
  NETlib.o \
  port.o \
  portasm_PIC24.o \
  queue.o \
  Random.o \
  Reboot.o \
  Regs.o \
  RTCClib.o \
  SMTP.o \
  SMTPlib.o \
  SNTP.o \
  SPIFlash.o \
  StackTsk.o \
  taskFlyport.o \
  tasks.o \
  TCP.o \
  TCPIP_Utils.o \
  TCPlib.o \
  Tick.o \
  UDP.o \
  UDPlib.o \
  WFConnectionAlgorithm.o \
  WFConnectionManager.o \
  WFConnectionProfile.o \
  WFDataTxRx.o \
  WFDebugStrings.o \
  WFDriverCom.o \
  WFDriverCom_24G.o \
  WFDriverRaw.o \
  WFDriverRaw_24G.o \
  WFEventHandler.o \
  WFInit.o \
  WFMac.o \
  WFMac_24G.o \
  WFMgmtMsg.o \
  WFMgmtMsg_24G.o \
  WFParamMsg.o \
  WFParamMsg_24G.o \
  WFPowerSave.o \
  WFScan.o \
  WFTxPower.o \
  WF_Config.o \
  WF_Eint.o \
  WF_Events.o \
  WF_Spi.o \
  WF_Utils.o \
  x_analog_in.o \
  x_analog_temp.o \
  x_compose.o \
  x_digital_io.o \
  x_groveboard.o \
  x_grovelib.o \
  x_heap.o \
  x_httplib.o \
  x_i2c_devices.o \
  x_input_capture.o \
  x_rht03.o \
  ZeroconfHelper.o \
  ZeroconfLinkLocal.o \
  ZeroconfMulticastDNS.o \
  -Tp24FJ256GA106.gld.00 \
  --defsym=__MPLAB_BUILD=1 \
  -Map=Flyport.map \
  --report-mem \
  --library=pic30 \
  --library=c \
  --library=m \
  -start-group \
  --library=pic30-coff \
  --library=m-coff \
  --library=c-coff \
  -end-group \

Archive member included because of file (symbol)

c:/program files/microchip/mplab c30/bin/bin/../../lib\libpic30-coff.a(crt0_standard.o)
                              (_resetPRI)
c:/program files/microchip/mplab c30/bin/bin/../../lib\libpic30-coff.a(c30_uart.o)
                              HWInit.o (__C30_UART)
c:/program files/microchip/mplab c30/bin/bin/../../lib\libpic30-coff.a(flash_helper.o)
                              NETlib.o (_flash_helper1)
c:/program files/microchip/mplab c30/bin/bin/../../lib\libpic30-coff.a(data_init_standard.o)
                              c:/program files/microchip/mplab c30/bin/bin/../../lib\libpic30-coff.a(crt0_standard.o) (_data_init_standard)
c:/program files/microchip/mplab c30/bin/bin/../../lib\libc-coff.a(memset.o)
                              DHCP.o (memset)
c:/program files/microchip/mplab c30/bin/bin/../../lib\libc-coff.a(strtok.o)
                              FTPlib.o (strtok)
c:/program files/microchip/mplab c30/bin/bin/../../lib\libc-coff.a(strcpy.o)
                              FTPlib.o (strcpy)
c:/program files/microchip/mplab c30/bin/bin/../../lib\libc-coff.a(strlen.o)
                              FTPlib.o (strlen)
c:/program files/microchip/mplab c30/bin/bin/../../lib\libc-coff.a(strcat.o)
                              FTPlib.o (strcat)
c:/program files/microchip/mplab c30/bin/bin/../../lib\libc-coff.a(xstoul.o)
                              FTPlib.o (_Stoul)
c:/program files/microchip/mplab c30/bin/bin/../../lib\libc-coff.a(sprintf.io)
                              FTPlib.o (_isprintf)
c:/program files/microchip/mplab c30/bin/bin/../../lib\libc-coff.a(strcmp.o)
                              FTPlib.o (strcmp)
c:/program files/microchip/mplab c30/bin/bin/../../lib\libc-coff.a(rand.o)
                              Helpers.o (rand)
c:/program files/microchip/mplab c30/bin/bin/../../lib\libc-coff.a(srand.o)
                              Helpers.o (srand)
c:/program files/microchip/mplab c30/bin/bin/../../lib\libc-coff.a(memcmp.o)
                              NBNS.o (memcmp)
c:/program files/microchip/mplab c30/bin/bin/../../lib\libc-coff.a(memcpy.o)
                              queue.o (memcpy)
c:/program files/microchip/mplab c30/bin/bin/../../lib\libc-coff.a(strchr.o)
                              SMTP.o (strchr)
c:/program files/microchip/mplab c30/bin/bin/../../lib\libc-coff.a(strstr.o)
                              SMTP.o (strstr)
c:/program files/microchip/mplab c30/bin/bin/../../lib\libc-coff.a(strncpy.o)
                              tasks.o (strncpy)
c:/program files/microchip/mplab c30/bin/bin/../../lib\libc-coff.a(free.o)
                              x_analog_in.o (free)
c:/program files/microchip/mplab c30/bin/bin/../../lib\libc-coff.a(malloc.o)
                              c:/program files/microchip/mplab c30/bin/bin/../../lib\libc-coff.a(free.o) (_Aldata)
c:/program files/microchip/mplab c30/bin/bin/../../lib\libc-coff.a(sprintf.o)
                              x_compose.o (sprintf)
c:/program files/microchip/mplab c30/bin/bin/../../lib\libc-coff.a(calloc.o)
                              x_grovelib.o (calloc)
c:/program files/microchip/mplab c30/bin/bin/../../lib\libc-coff.a(strspn.o)
                              c:/program files/microchip/mplab c30/bin/bin/../../lib\libc-coff.a(strtok.o) (strspn)
c:/program files/microchip/mplab c30/bin/bin/../../lib\libc-coff.a(strcspn.o)
                              c:/program files/microchip/mplab c30/bin/bin/../../lib\libc-coff.a(strtok.o) (strcspn)
c:/program files/microchip/mplab c30/bin/bin/../../lib\libc-coff.a(isspace.o)
                              c:/program files/microchip/mplab c30/bin/bin/../../lib\libc-coff.a(xstoul.o) (isspace)
c:/program files/microchip/mplab c30/bin/bin/../../lib\libc-coff.a(tolower.o)
                              c:/program files/microchip/mplab c30/bin/bin/../../lib\libc-coff.a(xstoul.o) (tolower)
c:/program files/microchip/mplab c30/bin/bin/../../lib\libc-coff.a(memchr.o)
                              c:/program files/microchip/mplab c30/bin/bin/../../lib\libc-coff.a(xstoul.o) (memchr)
c:/program files/microchip/mplab c30/bin/bin/../../lib\libc-coff.a(errno.o)
                              c:/program files/microchip/mplab c30/bin/bin/../../lib\libc-coff.a(xstoul.o) (errno)
c:/program files/microchip/mplab c30/bin/bin/../../lib\libc-coff.a(xprintf.io)
                              c:/program files/microchip/mplab c30/bin/bin/../../lib\libc-coff.a(sprintf.io) (__iPrintf)
c:/program files/microchip/mplab c30/bin/bin/../../lib\libc-coff.a(xgetmem.o)
                              c:/program files/microchip/mplab c30/bin/bin/../../lib\libc-coff.a(malloc.o) (_Getmem)
c:/program files/microchip/mplab c30/bin/bin/../../lib\libc-coff.a(xprintf.o)
                              c:/program files/microchip/mplab c30/bin/bin/../../lib\libc-coff.a(sprintf.o) (_Printf)
c:/program files/microchip/mplab c30/bin/bin/../../lib\libc-coff.a(xvacopy.o)
                              c:/program files/microchip/mplab c30/bin/bin/../../lib\libc-coff.a(xprintf.io) (_Vacopy)
c:/program files/microchip/mplab c30/bin/bin/../../lib\libc-coff.a(xputfld.io)
                              c:/program files/microchip/mplab c30/bin/bin/../../lib\libc-coff.a(xprintf.io) (__iPutfld)
c:/program files/microchip/mplab c30/bin/bin/../../lib\libc-coff.a(xputtxt.o)
                              c:/program files/microchip/mplab c30/bin/bin/../../lib\libc-coff.a(xprintf.io) (_Puttxt)
c:/program files/microchip/mplab c30/bin/bin/../../lib\libc-coff.a(xputfld.o)
                              c:/program files/microchip/mplab c30/bin/bin/../../lib\libc-coff.a(xprintf.o) (_Putfld)
c:/program files/microchip/mplab c30/bin/bin/../../lib\libc-coff.a(xlitob.o)
                              c:/program files/microchip/mplab c30/bin/bin/../../lib\libc-coff.a(xputfld.io) (_Litob)
c:/program files/microchip/mplab c30/bin/bin/../../lib\libc-coff.a(xldtob.o)
                              c:/program files/microchip/mplab c30/bin/bin/../../lib\libc-coff.a(xputfld.o) (_Ldtob)
c:/program files/microchip/mplab c30/bin/bin/../../lib\libc-coff.a(xldunsca.o)
                              c:/program files/microchip/mplab c30/bin/bin/../../lib\libc-coff.a(xldtob.o) (_LDunscale)
c:/program files/microchip/mplab c30/bin/bin/../../lib\libc-coff.a(xldscale.o)
                              c:/program files/microchip/mplab c30/bin/bin/../../lib\libc-coff.a(xldtob.o) (_LDscale)
c:/program files/microchip/mplab c30/bin/bin/../../lib\libc-coff.a(ldiv.o)
                              c:/program files/microchip/mplab c30/bin/bin/../../lib\libc-coff.a(xldtob.o) (ldiv)
c:/program files/microchip/mplab c30/bin/bin/../../lib\libc-coff.a(xgenld.o)
                              c:/program files/microchip/mplab c30/bin/bin/../../lib\libc-coff.a(xldtob.o) (_Genld)
c:/program files/microchip/mplab c30/bin/bin/../../lib\libc-coff.a(xdnorm.o)
                              c:/program files/microchip/mplab c30/bin/bin/../../lib\libc-coff.a(xldunsca.o) (_Dnorm)
c:/program files/microchip/mplab c30/bin/bin/../../lib\libc-coff.a(div.o)
                              c:/program files/microchip/mplab c30/bin/bin/../../lib\libc-coff.a(xgenld.o) (div)
c:/program files/microchip/mplab c30/bin/bin/../../lib\libm-coff.a(udivsi3.o)
                              Helpers.o (__udivsi3)
c:/program files/microchip/mplab c30/bin/bin/../../lib\libm-coff.a(divsf3.o)
                              HWlib.o (__divsf3)
c:/program files/microchip/mplab c30/bin/bin/../../lib\libm-coff.a(fgtge.o)
                              HWlib.o (__gtsf2)
c:/program files/microchip/mplab c30/bin/bin/../../lib\libm-coff.a(fixunssfsi.o)
                              HWlib.o (__fixunssfsi)
c:/program files/microchip/mplab c30/bin/bin/../../lib\libm-coff.a(floatsisf.o)
                              HWlib.o (__floatsisf)
c:/program files/microchip/mplab c30/bin/bin/../../lib\libm-coff.a(addsf3.o)
                              x_analog_temp.o (__subsf3)
c:/program files/microchip/mplab c30/bin/bin/../../lib\libm-coff.a(mulsf3.o)
                              HWlib.o (__mulsf3)
c:/program files/microchip/mplab c30/bin/bin/../../lib\libm-coff.a(divmoddi3.o)
                              Tick.o (__udivdi3)
c:/program files/microchip/mplab c30/bin/bin/../../lib\libm-coff.a(muldi3.o)
                              WFMac_24G.o (__muldi3)
c:/program files/microchip/mplab c30/bin/bin/../../lib\libm-coff.a(logf.o)
                              x_analog_temp.o (logf)
c:/program files/microchip/mplab c30/bin/bin/../../lib\libm-coff.a(log10f.o)
                              x_httplib.o (log10f)
c:/program files/microchip/mplab c30/bin/bin/../../lib\libm-coff.a(fixsfsi.o)
                              x_httplib.o (__fixsfsi)
c:/program files/microchip/mplab c30/bin/bin/../../lib\libm-coff.a(mulsi3.o)
                              c:/program files/microchip/mplab c30/bin/bin/../../lib\libc-coff.a(xstoul.o) (__mulsi3)
c:/program files/microchip/mplab c30/bin/bin/../../lib\libm-coff.a(extendsfdf.o)
                              c:/program files/microchip/mplab c30/bin/bin/../../lib\libc-coff.a(xputfld.o) (__extendsfdf2)
c:/program files/microchip/mplab c30/bin/bin/../../lib\libm-coff.a(umodsi3.o)
                              c:/program files/microchip/mplab c30/bin/bin/../../lib\libc-coff.a(xlitob.o) (__umodsi3)
c:/program files/microchip/mplab c30/bin/bin/../../lib\libm-coff.a(divsi3.o)
                              c:/program files/microchip/mplab c30/bin/bin/../../lib\libc-coff.a(xlitob.o) (__divsi3)
c:/program files/microchip/mplab c30/bin/bin/../../lib\libm-coff.a(deqltle.o)
                              c:/program files/microchip/mplab c30/bin/bin/../../lib\libc-coff.a(xldtob.o) (__ltdf2)
c:/program files/microchip/mplab c30/bin/bin/../../lib\libm-coff.a(fixdfsi.o)
                              c:/program files/microchip/mplab c30/bin/bin/../../lib\libc-coff.a(xldtob.o) (__fixdfsi)
c:/program files/microchip/mplab c30/bin/bin/../../lib\libm-coff.a(floatsidf.o)
                              c:/program files/microchip/mplab c30/bin/bin/../../lib\libc-coff.a(xldtob.o) (__floatsidf)
c:/program files/microchip/mplab c30/bin/bin/../../lib\libm-coff.a(subdf3.o)
                              c:/program files/microchip/mplab c30/bin/bin/../../lib\libc-coff.a(xldtob.o) (__subdf3)
c:/program files/microchip/mplab c30/bin/bin/../../lib\libm-coff.a(dgtge.o)
                              c:/program files/microchip/mplab c30/bin/bin/../../lib\libc-coff.a(xldtob.o) (__gtdf2)
c:/program files/microchip/mplab c30/bin/bin/../../lib\libm-coff.a(muldf3.o)
                              c:/program files/microchip/mplab c30/bin/bin/../../lib\libc-coff.a(xldtob.o) (__muldf3)
c:/program files/microchip/mplab c30/bin/bin/../../lib\libm-coff.a(divdf3.o)
                              c:/program files/microchip/mplab c30/bin/bin/../../lib\libc-coff.a(xldtob.o) (__divdf3)
c:/program files/microchip/mplab c30/bin/bin/../../lib\libm-coff.a(funpack2.o)
                              c:/program files/microchip/mplab c30/bin/bin/../../lib\libm-coff.a(divsf3.o) (_funpack2)
c:/program files/microchip/mplab c30/bin/bin/../../lib\libm-coff.a(futil.o)
                              c:/program files/microchip/mplab c30/bin/bin/../../lib\libm-coff.a(divsf3.o) (_fPropagateNaN)
c:/program files/microchip/mplab c30/bin/bin/../../lib\libm-coff.a(fpack.o)
                              c:/program files/microchip/mplab c30/bin/bin/../../lib\libm-coff.a(divsf3.o) (_fpack)
c:/program files/microchip/mplab c30/bin/bin/../../lib\libm-coff.a(fcompare.o)
                              c:/program files/microchip/mplab c30/bin/bin/../../lib\libm-coff.a(fgtge.o) (_fcompare)
c:/program files/microchip/mplab c30/bin/bin/../../lib\libm-coff.a(funpack.o)
                              c:/program files/microchip/mplab c30/bin/bin/../../lib\libm-coff.a(fixunssfsi.o) (_funpack)
c:/program files/microchip/mplab c30/bin/bin/../../lib\libm-coff.a(umuldi3.o)
                              c:/program files/microchip/mplab c30/bin/bin/../../lib\libm-coff.a(muldi3.o) (__umuldi3)
c:/program files/microchip/mplab c30/bin/bin/../../lib\libm-coff.a(_frexpf.o)
                              c:/program files/microchip/mplab c30/bin/bin/../../lib\libm-coff.a(logf.o) (_frexpf)
c:/program files/microchip/mplab c30/bin/bin/../../lib\libm-coff.a(dcompare.o)
                              c:/program files/microchip/mplab c30/bin/bin/../../lib\libm-coff.a(deqltle.o) (_dcompare)
c:/program files/microchip/mplab c30/bin/bin/../../lib\libm-coff.a(dunpack.o)
                              c:/program files/microchip/mplab c30/bin/bin/../../lib\libm-coff.a(fixdfsi.o) (_dunpack)
c:/program files/microchip/mplab c30/bin/bin/../../lib\libm-coff.a(dunpack2.o)
                              c:/program files/microchip/mplab c30/bin/bin/../../lib\libm-coff.a(muldf3.o) (_dunpack2)
c:/program files/microchip/mplab c30/bin/bin/../../lib\libm-coff.a(floatdidf.o)
                              c:/program files/microchip/mplab c30/bin/bin/../../lib\libm-coff.a(floatsidf.o) (__floatdidf)
c:/program files/microchip/mplab c30/bin/bin/../../lib\libm-coff.a(adddf3.o)
                              c:/program files/microchip/mplab c30/bin/bin/../../lib\libm-coff.a(subdf3.o) (__adddf3)
c:/program files/microchip/mplab c30/bin/bin/../../lib\libm-coff.a(dpack.o)
                              c:/program files/microchip/mplab c30/bin/bin/../../lib\libm-coff.a(muldf3.o) (_dpack)
c:/program files/microchip/mplab c30/bin/bin/../../lib\libm-coff.a(dtype.o)
                              c:/program files/microchip/mplab c30/bin/bin/../../lib\libm-coff.a(dcompare.o) (_dtype)
c:/program files/microchip/mplab c30/bin/bin/../../lib\libm-coff.a(dpropagateNaN.o)
                              c:/program files/microchip/mplab c30/bin/bin/../../lib\libm-coff.a(dunpack2.o) (_dPropagateNaN)
c:/program files/microchip/mplab c30/bin/bin/../../lib\libpic30-coff.a(sbrk.o)
                              c:/program files/microchip/mplab c30/bin/bin/../../lib\libc-coff.a(xgetmem.o) (sbrk)
c:/program files/microchip/mplab c30/bin/bin/../../lib\libpic30-coff.a(brk.o)
                              c:/program files/microchip/mplab c30/bin/bin/../../lib\libpic30-coff.a(sbrk.o) (brk)


Program Memory  [Origin = 0x200, Length = 0x2a9f8]

section                    address   length (PC units)   length (bytes) (dec)
-------                    -------   -----------------   --------------------
.text                        0x200              0x2578          0x3834  (14388)
.const                      0x2778              0x1aee          0x2865  (10341)
.text                       0x4266              0xc698         0x129e4  (76260)
.dinit                     0x108fe               0x64a           0x96f  (2415)
.text                      0x10f48              0x7462          0xae93  (44691)

                     Total program memory used (bytes):        0x2427f  (148095) 56%


Data Memory  [Origin = 0x800, Length = 0x4000]

section                    address      alignment gaps    total length  (dec)
-------                    -------      --------------    -------------------
.bss                         0x800                   0          0x1c06  (7174)
.data                       0x2406                   0           0x454  (1108)
.bss                        0x285a                   0           0x328  (808)
.data                       0x2b82                   0            0x92  (146)
.bss                        0x2c14                   0            0xae  (174)
.dconst                     0x2cc2                   0            0x32  (50)
.data                       0x2cf4                   0            0x2a  (42)
.bss                        0x2d1e                   0            0x28  (40)
.data                       0x2d46                   0            0x6e  (110)
.bss                        0x2db4                   0            0x72  (114)
.data                       0x2e26                   0            0x12  (18)
.bss                        0x2e38                   0            0x40  (64)
.data                       0x2e78                   0            0x1a  (26)
.bss                        0x2e92                   0             0x8  (8)
.dconst                     0x2e9a                   0             0x8  (8)
.data                       0x2ea2                   0             0x6  (6)
.bss                        0x2ea8                   0            0x12  (18)
.data                       0x2eba                   0             0x6  (6)
.bss                        0x2ec0                   0             0x4  (4)
.data                       0x2ec4                   0             0x8  (8)
.bss                        0x2ecc                   0             0x8  (8)
.data                       0x2ed4                   0             0x8  (8)
.bss                        0x2edc                   0             0x4  (4)
.data                       0x2ee0                   0             0x4  (4)
.bss                        0x2ee4                   0             0x2  (2)
.data                       0x2ee6                   0             0x2  (2)
.pbss                       0x2ee8                   0             0x2  (2)
.data                       0x2eea                   0             0x6  (6)
.bss                        0x2ef0                   0             0x2  (2)
.data                       0x2ef2                   0             0x4  (4)
.bss                        0x2ef6                   0             0x2  (2)
.data                       0x2ef8                   0             0x6  (6)
.pbss                       0x2efe                   0             0x2  (2)
.bss                        0x2f00                   0             0x2  (2)
.data                       0x2f02                   0             0x2  (2)
.pbss                       0x2f04                   0             0x2  (2)
.data                       0x2f06                   0             0x2  (2)
.bss                        0x2f08                   0             0x4  (4)
.data                       0x2f0c                   0             0x6  (6)
.bss                        0x2f12                   0             0x2  (2)
.data                       0x2f14                   0             0x2  (2)
.bss                        0x2f16                   0             0x2  (2)
.data                       0x2f18                   0             0x6  (6)
.bss                        0x2f1e                   0             0x2  (2)
.data                       0x2f20                   0             0x6  (6)
.bss                        0x2f26                   0             0x2  (2)
.dconst                     0x2f28                   0             0x2  (2)
.data                       0x2f2a                   0             0x2  (2)
.dconst                     0x2f2c                   0             0x2  (2)
.data                       0x2f2e                   0             0x2  (2)
.bss                        0x2f30                   0             0x2  (2)
my_heap                     0x2f32                   0           0x500  (1280)

                        Total data memory used (bytes):         0x2c32  (11314) 69%


Dynamic Memory Usage

region                     address                      maximum length  (dec)
------                     -------                      ---------------------
heap                        0x2f32                               0x500  (1280)
stack                       0x3432                              0x13ce  (5070)

                        Maximum dynamic memory (bytes):         0x18ce  (6350)


External Symbols in Data Memory (by address):

                    0x2006                  _TimerOn
                    0x206e                  _AppConfig
                    0x2118                  _xIPAddress
                    0x217c                  _xWord
                    0x217e                  _xChar
                    0x2180                  _xByte
                    0x2182                  _xByte2
                    0x2183                  _xByte3
                    0x2184                  _xInt
                    0x2186                  _xInt2
                    0x2188                  _xNode
                    0x2192                  _xQueue
                    0x2194                  _BUFFER_UDP_LEN
                    0x2196                  _udpBuffer
                    0x2198                  _udpRxLenGlobal
                    0x219a                  _udpSocket
                    0x219c                  _xUDPPort
                    0x219e                  _p_udp_data
                    0x21a0                  _p_udp_wifiram
                    0x21a2                  _xUDPRemoteHost
                    0x21a6                  _udpWord
                    0x21a8                  _udpInt
                    0x21aa                  _udpByte
                    0x21ac                  _UDPoverflowFlag
                    0x21ae                  _NETConf
                    0x2302                  _WFStatusold
                    0x2304                  _xNet
                    0x2332                  _udpRxLen
                    0x2334                  _udpBuffer1
                    0x23fc                  _tmp_len
                    0x23fe                  _hTCPIPTask
                    0x2400                  _hFlyTask
                    0x2402                  _hTimerTask
                    0x2404                  _xStatus
                    0x2406                  _LATs
                    0x243a                  _TRISs
                    0x246e                  _PORTs
                    0x24a2                  _CNPUs
                    0x24d6                  _CNPDs
                    0x250a                  _CNPos
                    0x253e                  _IOPos
                    0x2572                  _an
                    0x257c                  _UMODEs
                    0x2584                  _USTAs
                    0x258c                  _UBRGs
                    0x2594                  _UIFSs
                    0x259c                  _UIECs
                    0x25a4                  _UTXREGs
                    0x25ac                  _URXREGs
                    0x25b4                  _UTXIPos
                    0x25bc                  _URXIPos
                    0x25c4                  _AD1CFGL
                    0x25c6                  _AD1CFGH
                    0x25c8                  _AD1CONF1
                    0x25ca                  _AD1CONF2
                    0x25cc                  _AD1CONF3
                    0x25ce                  _AD1CH
                    0x25d0                  _AD1CSL
                    0x25d2                  _OCCON1s
                    0x25e4                  _OCCON2s
                    0x25f6                  _OCRs
                    0x2608                  _OCRSs
                    0x261a                  _RPORs
                    0x264e                  _RPFunc
                    0x2664                  _RPIORPin
                    0x2698                  _TCONs
                    0x26a2                  _OCM
                    0x26b4                  _RPIRs
                    0x26d2                  _RPIRPos
                    0x26f0                  _connectionFailureStrings
                    0x2718                  _connectionLostStrings
                    0x2724                  _deauthDisssocReasonCodes
                    0x2756                  _statusCodes
                    0x27b6                  _wpsState
                    0x27d4                  _wpsConfigErr
                    0x282a                  _moduleName
                    0x29c0                  _UDPSocketInfo
                    0x2a80                  _activeUDPSocket
                    0x2a82                  _UDPTxCount
                    0x2a84                  _UDPRxCount
                    0x2c14                  _lastBlock
                    0x2c76                  _SMTPClient
                    0x2c8e                  _IOMode
                    0x2cf4                  _g_d1
                    0x2cf8                  _g_d2
                    0x2cfc                  _g_dtype
                    0x2d02                  _g_dshared
                    0x2d08                  _g_SCK
                    0x2d09                  _g_MISO
                    0x2d0a                  _g_MOSI
                    0x2d0b                  _g_SPI_CS
                    0x2d0c                  _g_I2CSCL
                    0x2d0d                  _g_I2CSDA
                    0x2d0e                  _g_an
                    0x2d11                  _g_atype
                    0x2d15                  _g_ashared
                    0x2d1a                  _GroveStarted
                    0x2d1c                  _Board
                    0x2d46                  _ConnectionProfileID
                    0x2d48                  __WFStat
                    0x2d4a                  _WFConnection
                    0x2d4c                  _xTCPPort
                    0x2d4e                  _xSocket
                    0x2d50                  _xFrontEndStat
                    0x2d52                  _xFrontEndStatRet
                    0x2d54                  _xErr
                    0x2d56                  _xBool
                    0x2d58                  _WPAWrong
                    0x2d5a                  _numUdpSocket
                    0x2d5c                  _xUDPLocalPort
                    0x2d5e                  _xUDPRemotePort
                    0x2d60                  _activeUdpSocket
                    0x2d61                  _callbackUdpSocket
                    0x2d62                  _udpErr
                    0x2d64                  _udpBool
                    0x2d66                  _datadiscard
                    0x2d68                  _UDPoverflow
                    0x2d6a                  _xSemFrontEnd
                    0x2d6c                  _xSemHW
                    0x2d6e                  _RPICRs
                    0x2d7a                  _ICCON1Rs
                    0x2d86                  _ICCON2Rs
                    0x2dca                  _g_rxBufferLength
                    0x2dcc                  _WF_hibernate
                    0x2e0e                  _RawMoveState
                    0x2e16                  _DhcpIpPool
                    0x2e3e                  _remoteNode
                    0x2e78                  __Tls_setup__Randseed
                    0x2e7a                  __Randseed
                    0x2e7e                  __Tls_setup__Randinit
                    0x2e80                  __Randinit
                    0x2e82                  _DHCPAssigned
                    0x2e84                  _g_DhcpRenew
                    0x2e86                  _g_DhcpRetryTimer
                    0x2e8a                  _g_DhcpSuccessful
                    0x2e8c                  _g_WiFiConnectionChanged
                    0x2e8e                  _g_WiFiConnection
                    0x2e90                  _g_dhcpInProgress
                    0x2e98                  _g_rxDtim
                    0x2ea4                  _bDHCPServerEnabled
                    0x2ea8                  _isr_int2
                    0x2eaa                  _isr_int3
                    0x2eac                  _isr_int4
                    0x2eb4                  _icflag
                    0x2eb6                  _icvalue
                    0x2eba                  __Size_block
                    0x2ebc                  __Aldata
                    0x2ed4                  _g_HostRAWDataPacketReceived
                    0x2ed6                  _g_RawIndexPastEnd
                    0x2ed8                  _WFArpBroadcastIntervalSec
                    0x2ee0                  __Tls_setup_errno
                    0x2ee2                  _errno
                    0x2ee6                  _DHCPClientInitializedOnce
                    0x2ef2                  _uxCriticalNesting
                    0x2efa                  _pxCurrentTCB
                    0x2f0a                  _RawWindowState
                    0x2f0c                  _g_WaitingForMgmtResponse
                    0x2f10                  _WFNetworkFound
                    0x2f12                  _myRSSI
                    0x2f14                  _ScanCompleted
                    0x2f18                  _An_i
                    0x2f1a                  _An_Temp
                    0x2f1c                  _Dig_io
                    0x2f1e                  _flag
                    0x2f20                  _RHT03
                    0x2f22                  ___C30_UART
                    0x2f30                  ___curbrk

External Symbols in Data Memory (by name):

                    0x25c6                  _AD1CFGH
                    0x25c4                  _AD1CFGL
                    0x25ce                  _AD1CH
                    0x25c8                  _AD1CONF1
                    0x25ca                  _AD1CONF2
                    0x25cc                  _AD1CONF3
                    0x25d0                  _AD1CSL
                    0x2f1a                  _An_Temp
                    0x2f18                  _An_i
                    0x206e                  _AppConfig
                    0x2194                  _BUFFER_UDP_LEN
                    0x2d1c                  _Board
                    0x24d6                  _CNPDs
                    0x24a2                  _CNPUs
                    0x250a                  _CNPos
                    0x2d46                  _ConnectionProfileID
                    0x2e82                  _DHCPAssigned
                    0x2ee6                  _DHCPClientInitializedOnce
                    0x2e16                  _DhcpIpPool
                    0x2f1c                  _Dig_io
                    0x2d1a                  _GroveStarted
                    0x2d7a                  _ICCON1Rs
                    0x2d86                  _ICCON2Rs
                    0x2c8e                  _IOMode
                    0x253e                  _IOPos
                    0x2406                  _LATs
                    0x21ae                  _NETConf
                    0x25d2                  _OCCON1s
                    0x25e4                  _OCCON2s
                    0x26a2                  _OCM
                    0x2608                  _OCRSs
                    0x25f6                  _OCRs
                    0x246e                  _PORTs
                    0x2f20                  _RHT03
                    0x264e                  _RPFunc
                    0x2d6e                  _RPICRs
                    0x2664                  _RPIORPin
                    0x26d2                  _RPIRPos
                    0x26b4                  _RPIRs
                    0x261a                  _RPORs
                    0x2e0e                  _RawMoveState
                    0x2f0a                  _RawWindowState
                    0x2c76                  _SMTPClient
                    0x2f14                  _ScanCompleted
                    0x2698                  _TCONs
                    0x243a                  _TRISs
                    0x2006                  _TimerOn
                    0x258c                  _UBRGs
                    0x2a84                  _UDPRxCount
                    0x29c0                  _UDPSocketInfo
                    0x2a82                  _UDPTxCount
                    0x2d68                  _UDPoverflow
                    0x21ac                  _UDPoverflowFlag
                    0x259c                  _UIECs
                    0x2594                  _UIFSs
                    0x257c                  _UMODEs
                    0x25bc                  _URXIPos
                    0x25ac                  _URXREGs
                    0x2584                  _USTAs
                    0x25b4                  _UTXIPos
                    0x25a4                  _UTXREGs
                    0x2ed8                  _WFArpBroadcastIntervalSec
                    0x2d4a                  _WFConnection
                    0x2f10                  _WFNetworkFound
                    0x2302                  _WFStatusold
                    0x2dcc                  _WF_hibernate
                    0x2d58                  _WPAWrong
                    0x2ebc                  __Aldata
                    0x2e80                  __Randinit
                    0x2e7a                  __Randseed
                    0x2eba                  __Size_block
                    0x2e7e                  __Tls_setup__Randinit
                    0x2e78                  __Tls_setup__Randseed
                    0x2ee0                  __Tls_setup_errno
                    0x2d48                  __WFStat
                    0x2f22                  ___C30_UART
                    0x2f30                  ___curbrk
                    0x2a80                  _activeUDPSocket
                    0x2d60                  _activeUdpSocket
                    0x2572                  _an
                    0x2ea4                  _bDHCPServerEnabled
                    0x2d61                  _callbackUdpSocket
                    0x26f0                  _connectionFailureStrings
                    0x2718                  _connectionLostStrings
                    0x2d66                  _datadiscard
                    0x2724                  _deauthDisssocReasonCodes
                    0x2ee2                  _errno
                    0x2f1e                  _flag
                    0x2e84                  _g_DhcpRenew
                    0x2e86                  _g_DhcpRetryTimer
                    0x2e8a                  _g_DhcpSuccessful
                    0x2ed4                  _g_HostRAWDataPacketReceived
                    0x2d0c                  _g_I2CSCL
                    0x2d0d                  _g_I2CSDA
                    0x2d09                  _g_MISO
                    0x2d0a                  _g_MOSI
                    0x2ed6                  _g_RawIndexPastEnd
                    0x2d08                  _g_SCK
                    0x2d0b                  _g_SPI_CS
                    0x2f0c                  _g_WaitingForMgmtResponse
                    0x2e8e                  _g_WiFiConnection
                    0x2e8c                  _g_WiFiConnectionChanged
                    0x2d0e                  _g_an
                    0x2d15                  _g_ashared
                    0x2d11                  _g_atype
                    0x2cf4                  _g_d1
                    0x2cf8                  _g_d2
                    0x2e90                  _g_dhcpInProgress
                    0x2d02                  _g_dshared
                    0x2cfc                  _g_dtype
                    0x2dca                  _g_rxBufferLength
                    0x2e98                  _g_rxDtim
                    0x2400                  _hFlyTask
                    0x23fe                  _hTCPIPTask
                    0x2402                  _hTimerTask
                    0x2eb4                  _icflag
                    0x2eb6                  _icvalue
                    0x2ea8                  _isr_int2
                    0x2eaa                  _isr_int3
                    0x2eac                  _isr_int4
                    0x2c14                  _lastBlock
                    0x282a                  _moduleName
                    0x2f12                  _myRSSI
                    0x2d5a                  _numUdpSocket
                    0x219e                  _p_udp_data
                    0x21a0                  _p_udp_wifiram
                    0x2efa                  _pxCurrentTCB
                    0x2e3e                  _remoteNode
                    0x2756                  _statusCodes
                    0x23fc                  _tmp_len
                    0x2d64                  _udpBool
                    0x2196                  _udpBuffer
                    0x2334                  _udpBuffer1
                    0x21aa                  _udpByte
                    0x2d62                  _udpErr
                    0x21a8                  _udpInt
                    0x2332                  _udpRxLen
                    0x2198                  _udpRxLenGlobal
                    0x219a                  _udpSocket
                    0x21a6                  _udpWord
                    0x2ef2                  _uxCriticalNesting
                    0x27d4                  _wpsConfigErr
                    0x27b6                  _wpsState
                    0x2d56                  _xBool
                    0x2180                  _xByte
                    0x2182                  _xByte2
                    0x2183                  _xByte3
                    0x217e                  _xChar
                    0x2d54                  _xErr
                    0x2d50                  _xFrontEndStat
                    0x2d52                  _xFrontEndStatRet
                    0x2118                  _xIPAddress
                    0x2184                  _xInt
                    0x2186                  _xInt2
                    0x2304                  _xNet
                    0x2188                  _xNode
                    0x2192                  _xQueue
                    0x2d6a                  _xSemFrontEnd
                    0x2d6c                  _xSemHW
                    0x2d4e                  _xSocket
                    0x2404                  _xStatus
                    0x2d4c                  _xTCPPort
                    0x2d5c                  _xUDPLocalPort
                    0x219c                  _xUDPPort
                    0x21a2                  _xUDPRemoteHost
                    0x2d5e                  _xUDPRemotePort
                    0x217c                  _xWord

External Symbols in Program Memory (by address):

                  0x000200                  __resetPRI
                  0x000222                  __psv_init
                  0x000232                  __data_init_standard
                  0x000232                  __data_init
                  0x00036c                  __flash_helper1
                  0x000388                  __flash_helper2
                  0x00038c                  __flash_helper3
                  0x0003b0                  __flash_helper4
                  0x0003b2                  __flash_helper5
                  0x0003c0                  __flash_helper6
                  0x0003c6                  _memset
                  0x0003d4                  _strtok
                  0x00040c                  _strcpy
                  0x00041c                  _strlen
                  0x00042a                  _strcat
                  0x000448                  __Stoul
                  0x000570                  _strcmp
                  0x000594                  _rand
                  0x00063e                  _srand
                  0x000660                  _memcmp
                  0x00067c                  _memcpy
                  0x00068a                  _strchr
                  0x00069c                  _strstr
                  0x0006c4                  _strncpy
                  0x0006e6                  _free
                  0x00074e                  _malloc
                  0x0007f2                  sprintf.o:_prout
                  0x0007fe                  __isprintf
                  0x0007fe                  _sprintf
                  0x000820                  _calloc
                  0x00083e                  _strspn
                  0x000862                  _strcspn
                  0x000886                  _isspace
                  0x000896                  _tolower
                  0x0008a4                  _memchr
                  0x0008b8                  __Geterrno
                  0x0008c4                  __Getmem
                  0x0008d2                  ___iPrintf
                  0x0008d2                  __Printf
                  0x000a44                  __Vacopy
                  0x000a4e                  __Puttxt
                  0x000be2                  ___iPutfld
                  0x000be2                  __Putfld
                  0x000edc                  __Litob
                  0x0011ee                  __Ldtob
                  0x001640                  __LDunscale
                  0x001698                  __LDscale
                  0x00178e                  _ldiv
                  0x0017c8                  __Genld
                  0x001a30                  __Dnorm
                  0x001ac8                  _div
                  0x001ade                  ___mulsi3
                  0x001ade                  ___mulp32eds3
                  0x001ade                  ___mulp32peds3
                  0x001b34                  ___udivsi3
                  0x001b54                  ___divsf3
                  0x001bd8                  ___gesf2
                  0x001bd8                  ___gtsf2
                  0x001bdc                  ___fixunssfsi
                  0x001c12                  ___floatsisf
                  0x001c68                  ___subsf3
                  0x001c6a                  ___addsf3
                  0x001d24                  ___mulsf3
                  0x001db2                  ___udivmoddi3
                  0x001e80                  ___udivdi3
                  0x001e8e                  ___umoddi3
                  0x001e96                  ___divdi3
                  0x001ed0                  ___moddi3
                  0x001fa2                  ___muldi3
                  0x001ffe                  _logf
                  0x0020ac                  _log10f
                  0x0020b4                  ___fixsfsi
                  0x0020f6                  ___extendsfdf2
                  0x002134                  ___umodsi3
                  0x00213a                  ___divsi3
                  0x002158                  ___eqdf2
                  0x002158                  ___ledf2
                  0x002158                  ___ltdf2
                  0x002162                  ___fixdfsi
                  0x0021ba                  ___floatsidf
                  0x0021c0                  ___subdf3
                  0x0021c4                  ___gedf2
                  0x0021c4                  ___gtdf2
                  0x0021ce                  ___muldf3
                  0x0022b8                  ___divdf3
                  0x00236c                  __funpack2
                  0x00237c                  __fPropagateNaN
                  0x00238e                  __fbopExit
                  0x002396                  __fbopReturnNaN
                  0x00239c                  __fpack
                  0x0023e8                  __fcompare
                  0x00241e                  __funpack
                  0x002448                  ___umuldi3
                  0x00248c                  __frexpf
                  0x0024a6                  __dcompare
                  0x0024f8                  __dunpack
                  0x002546                  __dunpack2
                  0x002568                  __dreturnNaN
                  0x00256e                  __dunpack2exit
                  0x002578                  ___floatdidf
                  0x0025e6                  ___adddf3
                  0x0026e0                  __dpack
                  0x002738                  __dtype
                  0x00275c                  __dPropagateNaN
                  0x004110                  _g_RawAccessOutOfBoundsMask
                  0x00411a                  _TCPSocketInitializer
                  0x0041d8                  _ICPos
                  0x004314                  _TCPInit
                  0x0043ea                  _TCPOpen
                  0x00453e                  _TCPWasReset
                  0x004572                  _TCPIsConnected
                  0x00459a                  _TCPDisconnect
                  0x00463e                  _TCPClose
                  0x00465a                  _TCPGetRemoteInfo
                  0x004686                  _TCPFlush
                  0x0046a8                  _TCPIsPutReady
                  0x0046fe                  _TCPPut
                  0x00479e                  _TCPPutArray
                  0x004880                  _TCPPutString
                  0x00489e                  _TCPGetTxFIFOFull
                  0x0048cc                  _TCPDiscard
                  0x0048ea                  _TCPIsGetReady
                  0x004928                  _TCPGet
                  0x00499a                  _TCPGetArray
                  0x004a5e                  _TCPGetRxFIFOFree
                  0x004a8a                  _TCPPeekArray
                  0x004b34                  _TCPPeek
                  0x004b4c                  _TCPFindArrayEx
                  0x004dd6                  _TCPFindEx
                  0x004df4                  _TCPTick
                  0x005284                  _TCPProcess
                  0x00644e                  _TCPAdjustFIFOSize
                  0x006666                  __dbgwrite
                  0x006674                  _ADCInit
                  0x00669c                  __ADC1Interrupt
                  0x0066b0                  _ADCVal
                  0x0066d4                  _IOPut
                  0x0067f0                  _IOInit
                  0x006c5e                  _IOGet
                  0x006cda                  _IOButtonState
                  0x006d98                  _PowerLed
                  0x006dd8                  _UARTInit
                  0x006eca                  _UARTOn
                  0x006fa0                  _UARTOff
                  0x00702e                  _UARTRxInt
                  0x007122                  _UARTFlush
                  0x00714e                  _UARTBufferSize
                  0x0071d4                  _UARTRead
                  0x00728a                  _UARTWrite
                  0x007322                  _UARTWriteCh
                  0x007398                  _PWMInit
                  0x007610                  _PWMOn
                  0x00774c                  _PWMDuty
                  0x0077c2                  _PWMOff
                  0x0077da                  _I2CInit
                  0x0077f6                  _I2CStart
                  0x007838                  _I2CRestart
                  0x00787a                  _I2CStop
                  0x0078bc                  _I2CGetDevAck
                  0x0078fa                  _I2CTimeout
                  0x00790a                  _I2CAddrSizeSet
                  0x007930                  _I2CAddrSizeGet
                  0x00793c                  _I2CWrite
                  0x0079be                  _I2CRead
                  0x007a64                  _I2CReadReg
                  0x007ac8                  _I2CReadMulti
                  0x007b82                  _I2CWriteReg
                  0x007bc8                  _I2CWriteMulti
                  0x007c2a                  _SMTPBeginUsage
                  0x007c8a                  _SMTPEndUsage
                  0x007ce4                  _SMTPTask
                  0x0088fc                  _SMTPSendMail
                  0x00890c                  _SMTPIsBusy
                  0x008922                  _SMTPIsPutReady
                  0x008940                  _SMTPPut
                  0x0089e4                  _SMTPPutArray
                  0x008a20                  _SMTPPutString
                  0x008a56                  _SMTPFlush
                  0x008a64                  _SMTPPutDone
                  0x008bdc                  _FTPClientOpen
                  0x008bf4                  _FTPRead
                  0x008c0a                  _FTPWrite
                  0x008c20                  _FTPClose
                  0x008c32                  _FTPisConn
                  0x008c40                  _FTPRxLen
                  0x008c4e                  _FTPClientPasv
                  0x008e12                  _FTPSendCmd
                  0x008eb8                  _FTPConnect
                  0x009124                  _FTPFileCheck
                  0x0091ba                  _FTPFileSize
                  0x009264                  _FTPStore
                  0x00927a                  _FTPAppend
                  0x009462                  _FTPStreamOpen
                  0x0095e8                  _FTPStreamWrite
                  0x0096ba                  _FTPStreamRead
                  0x00982a                  _FTPStreamClose
                  0x00984a                  _FTPStreamStat
                  0x009854                  _FTPAnswer
                  0x0098b0                  _FTPRxFlush
                  0x00996c                  _FTPRxRead
                  0x009a86                  _xTaskGenericCreate
                  0x009b7c                  _vTaskDelete
                  0x009be8                  _vTaskDelayUntil
                  0x009c80                  _vTaskDelay
                  0x009cdc                  _vTaskPrioritySet
                  0x009db4                  _vTaskSuspend
                  0x009e0e                  _xTaskIsTaskSuspended
                  0x009e40                  _vTaskResume
                  0x009ea2                  _xTaskResumeFromISR
                  0x009f0c                  _vTaskStartScheduler
                  0x009f40                  _vTaskEndScheduler
                  0x009f56                  _vTaskSuspendAll
                  0x009f62                  _xTaskResumeAll
                  0x00a024                  _xTaskGetTickCount
                  0x00a038                  _uxTaskGetNumberOfTasks
                  0x00a040                  _vTaskIncrementTick
                  0x00a0dc                  _vTaskCleanUpResources
                  0x00a206                  _vTaskSwitchContext
                  0x00a260                  _vTaskPlaceOnEventList
                  0x00a2b6                  _xTaskRemoveFromEventList
                  0x00a338                  _vTaskSetTimeOutState
                  0x00a34c                  _xTaskCheckForTimeOut
                  0x00a3b8                  _vTaskMissedYield
                  0x00a3c2                  tasks.o:_prvIdleTask
                  0x00a544                  _xTaskGetCurrentTaskHandle
                  0x00a550                  _vTaskPriorityInherit
                  0x00a5c2                  _vTaskPriorityDisinherit
                  0x00a61c                  _NETCustomSave
                  0x00a6fa                  _NETCustomDelete
                  0x00a748                  _NETCustomExist
                  0x00a776                  _NETCustomLoad
                  0x00a80e                  _NETSetParam
                  0x00a9bc                  _WFGeneric
                  0x00aa52                  _WFConnect
                  0x00aaf0                  _WFDisconnect
                  0x00ab10                  _WFScan
                  0x00ab2c                  _RSSIUpdate
                  0x00ab56                  _cRSSIUpdate
                  0x00abb4                  _RSSIValue
                  0x00abc0                  _RSSIStatus
                  0x00abe2                  _WFScanList
                  0x00acb6                  _WFStopConnecting
                  0x00ad4e                  _WFSetChannel
                  0x00adb6                  _WFSetSecurity
                  0x00ae02                  _WFHibernate
                  0x00ae2a                  _WFSleep
                  0x00ae5e                  _WFOn
                  0x00ae8c                  _WFPsPollEnable
                  0x00af42                  _cWFDisconnect
                  0x00af62                  _cWFScan
                  0x00afee                  _cWFScanList
                  0x00b0ba                  _WFGetStat
                  0x00b0c2                  _cWFStopConnecting
                  0x00b0fa                  _cWFConnect
                  0x00b10e                  _cWFPsPollDisable
                  0x00b11a                  _cWFPsPollEnable
                  0x00b128                  _DHCPServerInit
                  0x00b14a                  _DHCPServerSMInit
                  0x00b154                  _DHCPServerTask
                  0x00bbca                  _DHCPServer_Disable
                  0x00bbf4                  _DHCPServer_Enable
                  0x00bc02                  _DHCPInit
                  0x00bc52                  _DHCPDisable
                  0x00bc74                  _DHCPEnable
                  0x00bc8c                  _DHCPIsEnabled
                  0x00bca4                  _DHCPIsBound
                  0x00bcb2                  _DHCPStateChanged
                  0x00bcd4                  _DHCPIsServerDetected
                  0x00bce4                  _DHCPTempIPAddr
                  0x00bd2a                  _DHCPTask
                  0x00c696                  _LFSRSeedRand
                  0x00c6d6                  _LFSRRand
                  0x00c744                  _GenerateRandomDWORD
                  0x00c882                  _StringToIPAddress
                  0x00ca0a                  _IPAddressToString
                  0x00ca4c                  _Base64Decode
                  0x00cb8a                  _Base64Encode
                  0x00cce6                  _uitoa
                  0x00cd64                  _ultoa
                  0x00ce14                  _hexatob
                  0x00ce8a                  _btohexa_high
                  0x00ceb2                  _btohexa_low
                  0x00ced8                  _stricmppgm2ram
                  0x00cf70                  _swaps
                  0x00cf8a                  _swapl
                  0x00cfe8                  _CalcIPChecksum
                  0x00d05c                  _strupr
                  0x00d096                  _FormatNetBIOSName
                  0x00d0de                  _strnchr
                  0x00d124                  _DNSInit
                  0x00d138                  _DNSBeginUsage
                  0x00d15e                  _DNSEndUsage
                  0x00d194                  _DNSResolve
                  0x00d1d6                  _DNSIsResolved
                  0x00d9ca                  _TCPGenericOpen
                  0x00dabe                  _cTCPGenericOpen
                  0x00dae8                  _TCPGenericClose
                  0x00db88                  _cTCPGenericClose
                  0x00db98                  _TCPServerDetach
                  0x00dc38                  _cTCPServerDetach
                  0x00dc48                  _TCPClientOpen
                  0x00dc5e                  _TCPServerOpen
                  0x00dc72                  _TCPRead
                  0x00dd1e                  _TCPpRead
                  0x00ddd0                  _cTCPpRead
                  0x00de1a                  _cTCPRead
                  0x00de3c                  _TCPWrite
                  0x00defa                  _cTCPWrite
                  0x00df1a                  _TCPRemote
                  0x00dfe0                  _cTCPRemote
                  0x00dffc                  _TCPClientClose
                  0x00e008                  _TCPServerClose
                  0x00e014                  _TCPisConn
                  0x00e0c2                  _cTCPisConn
                  0x00e0d4                  _TCPRxFlush
                  0x00e174                  _cTCPRxFlush
                  0x00e184                  _TCPRxLen
                  0x00e22c                  _cTCPRxLen
                  0x00e23e                  _get_http_request
                  0x00e618                  _create_http_socket
                  0x00e6bc                  _do_http_request
                  0x00e6f8                  _do_http_request_header
                  0x00e732                  _http_get_response
                  0x00e7a2                  _do_http_request_and_get_response
                  0x00e7b6                  _close_socket
                  0x00e7dc                  _get_header_from_response
                  0x00e86a                  _create_large_post
                  0x00e9d6                  _end_http_post_request
                  0x00e9e4                  _create_chunked_post
                  0x00ea4c                  _get_chunked_text
                  0x00ea9c                  _end_chunked_request
                  0x00eaaa                  _GetReadPtrRawWindow
                  0x00ebd0                  _WFPeriodicGratuitousArp
                  0x00ec58                  _RetrieveBinaryKey
                  0x00ec92                  _MACProcess
                  0x00ecbc                  _WFGetTCBSize
                  0x00ecc4                  _MACInit
                  0x00ecce                  _RawInit
                  0x00ed0e                  _MACIsLinked
                  0x00ed18                  _MACIsTxReady
                  0x00ed36                  _RawGetMgmtRxBuffer
                  0x00ed4a                  _MACDiscardRx
                  0x00ed5c                  _MACGetFreeRxSize
                  0x00edd2                  _MACGetHeader
                  0x00eeae                  _MACPutHeader
                  0x00ef0a                  _MACPutGeneralHeader
                  0x00ef58                  _MACFlush
                  0x00ef7a                  _MACSetReadPtrInRx
                  0x00ef8a                  _MACSetWritePtr
                  0x00ef9e                  _MACSetReadPtr
                  0x00efb2                  _MACCalcRxChecksum
                  0x00efda                  _MACMemCopyAsync
                  0x00f202                  _MACIsMemCopyDone
                  0x00f20a                  _MACGet
                  0x00f228                  _MACGetArray
                  0x00f26c                  _MACPut
                  0x00f28c                  _MACPutArray
                  0x00f2ac                  _MACPowerDown
                  0x00f2b2                  _MACPowerUp
                  0x00f2b8                  _CalcIPBufferChecksum
                  0x00f2da                  _UDPGenericOpen
                  0x00f3a2                  _cUDPGenericOpen
                  0x00f442                  _UDPLocalPort
                  0x00f45a                  _UDPServerOpen
                  0x00f46e                  _UDPClientOpen
                  0x00f496                  _UDPBroadcastOpen
                  0x00f4aa                  _UDPGenericClose
                  0x00f53a                  _cUDPGenericClose
                  0x00f56e                  _UDPServerClose
                  0x00f57c                  _UDPClientClose
                  0x00f58a                  _UDPRxLen
                  0x00f59e                  _UDPRxFlush
                  0x00f5ee                  _UDPRxOver
                  0x00f620                  _UDPRead
                  0x00f74e                  _UDPpRead
                  0x00f83e                  _UDPWrite
                  0x00f8ea                  _cUDPWrite
                  0x00f926                  _UDPMultiOn
                  0x00f9d0                  _cUDPMultiOn
                  0x00fa78                  _UDPMultiOpen
                  0x00fada                  _UDPInit
                  0x00fafc                  _UDPOpenEx
                  0x00fc1c                  _UDPTask
                  0x00fe02                  _UDPIsOpened
                  0x00fe24                  _UDPClose
                  0x00fe5c                  _UDPSetTxBuffer
                  0x00fe70                  _UDPSetRxBuffer
                  0x00fe84                  _UDPIsPutReady
                  0x00febc                  _UDPPut
                  0x00fef0                  _UDPPutArray
                  0x00ff28                  _UDPPutString
                  0x00ff3e                  _UDPFlush
                  0x00ff9e                  _UDPIsGetReady
                  0x00ffda                  _UDPGet
                  0x010012                  _UDPGetArray
                  0x01005e                  _UDPDiscard
                  0x010086                  _UDPProcess
                  0x01025e                  _SPIFlashInit
                  0x01037c                  _SPIFlashReadArray
                  0x01046e                  _SPIFlashBeginWrite
                  0x01047c                  _SPIFlashWrite
                  0x01059a                  _SPIFlashWriteArray
                  0x0107dc                  _SPIFlashEraseSector
                  0x010f48                  _CmdCheck
                  0x011288                  _main
                  0x0112dc                  _TCPIPTask
                  0x011580                  _WiFiTask
                  0x011604                  _WFProcess
                  0x011636                  _SignalDHCPSuccessful
                  0x011644                  _SetDhcpProgressState
                  0x01165c                  _SignalWiFiConnectionChanged
                  0x01170a                  _Read8BitWFRegister
                  0x011734                  _Write8BitWFRegister
                  0x01175c                  _Read16BitWFRegister
                  0x011790                  _Write16BitWFRegister
                  0x0117c4                  _WriteWFArray
                  0x0117f4                  _ReadWFArray
                  0x011938                  _WFEintHandler
                  0x0119e2                  _ReenablePowerSaveMode
                  0x0119ec                  _WFHardwareInit
                  0x011bb2                  _WF_OutputConnectionContext
                  0x011c44                  _WF_OutputConnectionDebugMsg
                  0x011e8c                  _WF_OutputConnectionInfo
                  0x01211a                  _WF_AssertionFailed
                  0x01218a                  _WF_DisplayModuleAssertInfo
                  0x0121da                  _xQueueCreate
                  0x01227e                  _xQueueCreateMutex
                  0x0122e2                  _xQueueGenericSend
                  0x0123c6                  _xQueueGenericSendFromISR
                  0x012426                  _xQueueGenericReceive
                  0x012568                  _xQueueReceiveFromISR
                  0x0125ca                  _uxQueueMessagesWaiting
                  0x0125e2                  _uxQueueMessagesWaitingFromISR
                  0x0125f2                  _vQueueDelete
                  0x01278c                  _xQueueIsQueueEmptyFromISR
                  0x0127cc                  _xQueueIsQueueFullFromISR
                  0x0127ea                  _HashAddData
                  0x012806                  _MD5Initialize
                  0x012842                  _MD5AddData
                  0x012b44                  _MD5Calculate
                  0x012cc8                  _WFEnableMRF24WB0MMode
                  0x012cda                  _WFEnableDebugPrint
                  0x012cea                  _WF_SetLinkDownThreshold
                  0x012cfa                  _WF_SetTxMode
                  0x012d0a                  _WF_GetTxMode
                  0x012d1a                  _WFEnableBroadcastProbeResponse
                  0x012d2c                  _WF_GetDeviceInfo
                  0x012d82                  _WF_SetMacAddress
                  0x012d92                  _WF_GetMacAddress
                  0x012da2                  _WF_MulticastSetConfig
                  0x012e4e                  _WF_MulticastGetConfig
                  0x012eb4                  _WF_SetTxDataConfirm
                  0x012ec4                  _WF_GetTxDataConfirm
                  0x012ed4                  _WF_SetRegionalDomain
                  0x012ee4                  _WF_GetRegionalDomain
                  0x012ef4                  _WF_SetRtsThreshold
                  0x012f1e                  _WF_YieldPassphrase2Host
                  0x012f30                  _WF_SetPSK
                  0x012f40                  _WF_GetRtsThreshold
                  0x012f5e                  _WF_SetMultiCastFilter
                  0x012fd4                  _WF_EnableSWMultiCastFilter
                  0x012fe6                  _WF_GetMacStats
                  0x01311a                  _SendSetParamMsg
                  0x01314a                  _SendGetParamMsg
                  0x01317e                  __IC1Interrupt
                  0x0131b8                  __IC2Interrupt
                  0x0131d2                  __IC3Interrupt
                  0x0131fa                  __IC4Interrupt
                  0x013214                  __IC5Interrupt
                  0x01323c                  __IC6Interrupt
                  0x013256                  _IOInit_
                  0x0132fe                  _ICInit
                  0x013398                  _ICOn
                  0x01346a                  _ICOff
                  0x0134d8                  _OneWireDecode
                  0x013630                  _RawCalculateChecksum
                  0x01364c                  _AllocateMgmtTxBuffer
                  0x01369e                  _DeallocateMgmtRxBuffer
                  0x0136ae                  _AllocateDataTxBuffer
                  0x01370a                  _SendRAWDataFrame
                  0x013734                  _SendRAWManagementFrame
                  0x013746                  _DeallocateDataRxBuffer
                  0x013770                  _RawMountRxBuffer
                  0x0137a0                  _RawToRawCopy
                  0x0137ce                  _PushRawWindow
                  0x0137e0                  _PopRawWindow
                  0x0137f8                  _ScratchMount
                  0x01381c                  _ScratchUnmount
                  0x01382e                  _RawRead
                  0x01384a                  _RawWrite
                  0x0138e8                  _RawSetIndex
                  0x013974                  _RawGetIndex
                  0x013990                  _RawGetByte
                  0x0139cc                  _RawSetByte
                  0x013aca                  _WF_CASetElements
                  0x013b82                  _WF_CASetElementsN
                  0x013bb6                  _WF_CAGetElements
                  0x013c00                  _WF_CASetScanType
                  0x013c10                  _WF_CAGetScanType
                  0x013c22                  _WF_CASetMinChannelTime
                  0x013c3c                  _WF_CAGetMinChannelTime
                  0x013c5c                  _WF_CASetMaxChannelTime
                  0x013c76                  _WF_CAGetMaxChannelTime
                  0x013c96                  _WF_CASetProbeDelay
                  0x013cb0                  _WF_CAGetProbeDelay
                  0x013cd0                  _WF_CASetScanCount
                  0x013ce0                  _WF_CAGetScanCount
                  0x013cf2                  _WF_CASetRssi
                  0x013d02                  _WF_CAGetRssi
                  0x013d14                  _WF_CASetListRetryCount
                  0x013d24                  _WF_CAGetListRetryCount
                  0x013d36                  _WF_CASetEventNotificationAction
                  0x013d42                  _WF_CAGetEventNotificationAction
                  0x013d52                  _WF_CASetBeaconTimeoutAction
                  0x013d62                  _WF_CAGetBeaconTimeoutAction
                  0x013d74                  _WF_CASetDeauthAction
                  0x013d84                  _WF_CAGetDeauthAction
                  0x013d96                  _WF_CASetChannelList
                  0x013da8                  _WF_CAGetChannelList
                  0x013de4                  _WF_CASetListenInterval
                  0x013dfe                  _WF_CASetDtimInterval
                  0x013e18                  _WF_CAGetListenInterval
                  0x013e38                  _WF_CASetBeaconPeriod
                  0x013e52                  _WF_CAGetBeaconPeriod
                  0x013e72                  _WF_CAGetDtimInterval
                  0x013e92                  _WF_CASetBeaconTimeout
                  0x013ea2                  _WF_CAGetBeaconTimeout
                  0x013ec0                  _GetEventNotificationMask
                  0x013f42                  _WF_DisableModuleConnectionManager
                  0x013f54                  _ARPSendPkt
                  0x014018                  _ARPInit
                  0x014072                  _ARPProcess
                  0x01418a                  _ARPResolve
                  0x01426e                  _ARPIsResolved
                  0x014390                  _SwapARPPacket
                  0x0143c2                  _StackInit
                  0x01442c                  _StackTask
                  0x014804                  _StackApplications
                  0x01481e                  _RenewDhcp
                  0x01482c                  x_groveboard.o:_Board_ctor
                  0x0148ae                  _attachSensorToI2CBus
                  0x014960                  _attachSensorToDigioBus
                  0x014a82                  _attachSensorToAnBus
                  0x014b4a                  _attachSensorToUartBus
                  0x014cc0                  x_rht03.o:_RHT03_ctor
                  0x014cf2                  x_rht03.o:_RHT03_dtor
                  0x014d18                  x_rht03.o:_RHT03_attach
                  0x014d3c                  x_rht03.o:_RHT03_configure
                  0x014d78                  x_rht03.o:_RHT03_set
                  0x015006                  x_rht03.o:_RHT03_get
                  0x01504c                  _NBNSInit
                  0x015056                  _NBNSTask
                  0x015412                  _GenericSMTP
                  0x0154ba                  _SMTPStart
                  0x0154c4                  _cSMTPStart
                  0x0154d2                  _SMTPSetServer
                  0x015572                  _cSMTPSetServer
                  0x0155be                  _SMTPSetMsg
                  0x01565e                  _cSMTPSetMsg
                  0x0156ba                  _SMTPSend
                  0x0156c4                  _cSMTPSend
                  0x0156d4                  _SMTPBusy
                  0x0156de                  _cSMTPBusy
                  0x0156ec                  _SMTPStop
                  0x0156f6                  _cSMTPStop
                  0x015710                  _SMTPReport
                  0x0157b6                  _cSMTPReport
                  0x0157c4                  _WF_CPCreate
                  0x0157f2                  _WF_CPDelete
                  0x015816                  _WF_CPGetIds
                  0x01583e                  _WF_CPSetElements
                  0x015864                  _WF_CPGetElements
                  0x01587a                  _WF_CPSetSsidType
                  0x01588e                  _WF_CPGetSsidType
                  0x0158a4                  _WF_CPSetSsid
                  0x0158ca                  _WF_CPGetSsid
                  0x01590a                  _WF_CPSetBssid
                  0x01591e                  _WF_CPGetBssid
                  0x015934                  _WF_CPSetNetworkType
                  0x015948                  _WF_CPGetNetworkType
                  0x01595e                  _WF_CPSetWepKeyType
                  0x015972                  _WF_CPGetWepKeyType
                  0x015988                  _WF_CPGetWPSCredentials
                  0x01599e                  _WF_CPUpdatePMK
                  0x0159b2                  _WF_CPSetSecurity
                  0x015a2a                  _WF_CPGetSecurity
                  0x015a94                  _WF_CPSetDefaultWepKeyIndex
                  0x015aa8                  _WF_CPGetDefaultWepKeyIndex
                  0x015abe                  _WF_CPSetAdHocBehavior
                  0x015ad2                  _WF_CPGetAdHocBehavior
                  0x015b66                  _DisplayIPValue
                  0x015ba0                  _InitAppConfig
                  0x015dc6                  _WFProcessMgmtIndicateMsg
                  0x016018                  _new
                  0x016042                  _delete_
                  0x016074                  _delet_
                  0x016082                  _attachToBoard
                  0x0160ce                  _configure
                  0x01610a                  _set
                  0x016146                  _get
                  0x016196                  _readError
                  0x01624a                  _SNTPInit
                  0x01625a                  _SNTPClient
                  0x016422                  _SNTPGetUTCSeconds
                  0x01647a                  _IPGetHeader
                  0x01658c                  _IPPutHeader
                  0x016634                  _IPSetRxBuffer
                  0x01667a                  x_digital_io.o:_Dig_io_ctor
                  0x016714                  x_digital_io.o:_Dig_io_dtor
                  0x016752                  x_digital_io.o:_Dig_io_attach
                  0x016792                  x_digital_io.o:_Dig_io_set_dig_io
                  0x016836                  x_digital_io.o:_Dig_io_get_dig_io
                  0x01685c                  __U1RXInterrupt
                  0x01687c                  __U2RXInterrupt
                  0x01689c                  __U3RXInterrupt
                  0x0168bc                  __U4RXInterrupt
                  0x0168dc                  __DefaultInterrupt
                  0x016906                  __OscillatorFail
                  0x016930                  __AddressError
                  0x01695a                  __StackError
                  0x016984                  __MathError
                  0x0169ae                  __INT2Interrupt
                  0x0169d6                  __INT3Interrupt
                  0x0169fe                  __INT4Interrupt
                  0x016a26                  _SendMgmtMsg
                  0x016aac                  _SignalMgmtConfirmReceivedEvent
                  0x016ab6                  _WaitForMgmtResponse
                  0x016b56                  _WaitForMgmtResponseAndReadData
                  0x016bb8                  _WFSetFuncState
                  0x016be4                  _nothigToDo
                  0x016bea                  _INTDetach
                  0x016c1a                  _INTAttach
                  0x016c4c                  _INTInit
                  0x016ce4                  _INTPriority
                  0x016d44                  _INTEnable
                  0x016d74                  _INTDisable
                  0x016d9e                  _AnnounceInit
                  0x016da8                  _AnnounceIP
                  0x016e34                  _DiscoveryTask
                  0x016f26                  _pvPortMalloc
                  0x017032                  _vPortFree
                  0x01708e                  _xPortGetFreeHeapSize
                  0x017096                  _vPortInitialiseBlocks
                  0x01709c                  _WFConfigureLowPowerMode
                  0x0170dc                  _WF_PsPollEnable
                  0x01711e                  _isSleepNeeded
                  0x017126                  _ClearSleepNeeded
                  0x017130                  _SetSleepNeeded
                  0x01713a                  _SetAppPowerSaveMode
                  0x017146                  _GetAppPowerSaveMode
                  0x01714e                  _WF_PsPollDisable
                  0x017170                  _WF_GetPowerSaveState
                  0x017180                  _WFisPsPollEnabled
                  0x0171a2                  _WFIsPsPollActive
                  0x0171aa                  _EnsureWFisAwake
                  0x0171cc                  _WF_HibernateEnable
                  0x0171fa                  _SetPowerSaveState
                  0x017206                  _pxPortInitialiseStack
                  0x017290                  _xPortStartScheduler
                  0x0172be                  _vPortEndScheduler
                  0x0172f2                  _vPortEnterCritical
                  0x017306                  _vPortExitCritical
                  0x017320                  __T5Interrupt
                  0x01734e                  _WF_CMConnect
                  0x01739e                  _WF_CMDisconnect
                  0x0173d6                  _WF_CMGetConnectionState
                  0x01742c                  _WFisConnected
                  0x017434                  _SetLogicalConnectionState
                  0x017440                  _WF_CMCheckConnectionState
                  0x01747c                  _WF_CMGetConnectContext
                  0x01748e                  _TickInit
                  0x017512                  _TickGet
                  0x01751e                  _TickGetDiv256
                  0x01754e                  _TickGetDiv64K
                  0x01757e                  _TickConvertToMilliseconds
                  0x0175a4                  __T1Interrupt
                  0x0175bc                  _vListInitialise
                  0x0175ee                  _vListInitialiseItem
                  0x0175fc                  _vListInsertEnd
                  0x017640                  _vListInsert
                  0x0176a0                  _vListRemove
                  0x0176e4                  x_analog_temp.o:_An_Temp_ctor
                  0x0176fa                  x_analog_temp.o:_An_Temp_dtor
                  0x017720                  x_analog_temp.o:_An_Temp_attach
                  0x017742                  x_analog_temp.o:_An_Temp_get
                  0x017800                  _DelayMs
                  0x01782c                  _Delay10us
                  0x017910                  _ARPResolveMAC
                  0x0179cc                  _cARPResolveMAC
                  0x017a18                  _HWInit
                  0x017b1e                  _WF_ProcessEvent
                  0x017c12                  _postSensorValue
                  0x017cf6                  _WF_SpiInit
                  0x017d16                  _WF_SpiEnableChipSelect
                  0x017d1e                  _WF_SpiDisableChipSelect
                  0x017d28                  _WFSpiTxRx
                  0x017dca                  _WF_Connect
                  0x017eb6                  _WF_Scan
                  0x017ef4                  _WF_ScanGetResult
                  0x017f44                  _WF_EintIsDisabled
                  0x017f56                  _WF_EintIsPending
                  0x017f78                  __INT1Interrupt
                  0x017fb2                  _WF_EintEnable
                  0x017fc4                  _WF_EintDisable
                  0x017fcc                  _WF_EintInit
                  0x017fde                  _set_register
                  0x01803a                  _read_register
                  0x018076                  _WF_TxPowerSetMax
                  0x0180b8                  _WF_TxPowerGetMax
                  0x0180e4                  _WF_TxPowerGetFactoryMax
                  0x0180fe                  x_analog_in.o:_An_i_ctor
                  0x018114                  x_analog_in.o:_An_i_dtor
                  0x01813a                  x_analog_in.o:_An_i_attach
                  0x01815c                  x_analog_in.o:_An_i_getan_i
                  0x018182                  _ICMPProcess
                  0x018200                  _OnConnectionSuccessful
                  0x018218                  _OnConnectionFailed
                  0x018222                  _OnConnectionTempLost
                  0x01822c                  _OnConnectionReestablished
                  0x01823c                  _OnConnectionPermLost
                  0x01824e                  _OnScanResult
                  0x01827e                  _FlyportTask
                  0x0182f2                  _WF_Init
                  0x01835a                  _vPortYield

External Symbols in Program Memory (by name):

                  0x006674                  _ADCInit
                  0x0066b0                  _ADCVal
                  0x014018                  _ARPInit
                  0x01426e                  _ARPIsResolved
                  0x014072                  _ARPProcess
                  0x01418a                  _ARPResolve
                  0x017910                  _ARPResolveMAC
                  0x013f54                  _ARPSendPkt
                  0x0136ae                  _AllocateDataTxBuffer
                  0x01364c                  _AllocateMgmtTxBuffer
                  0x016da8                  _AnnounceIP
                  0x016d9e                  _AnnounceInit
                  0x00ca4c                  _Base64Decode
                  0x00cb8a                  _Base64Encode
                  0x00f2b8                  _CalcIPBufferChecksum
                  0x00cfe8                  _CalcIPChecksum
                  0x017126                  _ClearSleepNeeded
                  0x010f48                  _CmdCheck
                  0x00bc52                  _DHCPDisable
                  0x00bc74                  _DHCPEnable
                  0x00bc02                  _DHCPInit
                  0x00bca4                  _DHCPIsBound
                  0x00bc8c                  _DHCPIsEnabled
                  0x00bcd4                  _DHCPIsServerDetected
                  0x00b128                  _DHCPServerInit
                  0x00b14a                  _DHCPServerSMInit
                  0x00b154                  _DHCPServerTask
                  0x00bbca                  _DHCPServer_Disable
                  0x00bbf4                  _DHCPServer_Enable
                  0x00bcb2                  _DHCPStateChanged
                  0x00bd2a                  _DHCPTask
                  0x00bce4                  _DHCPTempIPAddr
                  0x00d138                  _DNSBeginUsage
                  0x00d15e                  _DNSEndUsage
                  0x00d124                  _DNSInit
                  0x00d1d6                  _DNSIsResolved
                  0x00d194                  _DNSResolve
                  0x013746                  _DeallocateDataRxBuffer
                  0x01369e                  _DeallocateMgmtRxBuffer
                  0x01782c                  _Delay10us
                  0x017800                  _DelayMs
                  0x016e34                  _DiscoveryTask
                  0x015b66                  _DisplayIPValue
                  0x0171aa                  _EnsureWFisAwake
                  0x009854                  _FTPAnswer
                  0x00927a                  _FTPAppend
                  0x008bdc                  _FTPClientOpen
                  0x008c4e                  _FTPClientPasv
                  0x008c20                  _FTPClose
                  0x008eb8                  _FTPConnect
                  0x009124                  _FTPFileCheck
                  0x0091ba                  _FTPFileSize
                  0x008bf4                  _FTPRead
                  0x0098b0                  _FTPRxFlush
                  0x008c40                  _FTPRxLen
                  0x00996c                  _FTPRxRead
                  0x008e12                  _FTPSendCmd
                  0x009264                  _FTPStore
                  0x00982a                  _FTPStreamClose
                  0x009462                  _FTPStreamOpen
                  0x0096ba                  _FTPStreamRead
                  0x00984a                  _FTPStreamStat
                  0x0095e8                  _FTPStreamWrite
                  0x008c0a                  _FTPWrite
                  0x008c32                  _FTPisConn
                  0x01827e                  _FlyportTask
                  0x00d096                  _FormatNetBIOSName
                  0x00c744                  _GenerateRandomDWORD
                  0x015412                  _GenericSMTP
                  0x017146                  _GetAppPowerSaveMode
                  0x013ec0                  _GetEventNotificationMask
                  0x00eaaa                  _GetReadPtrRawWindow
                  0x017a18                  _HWInit
                  0x0127ea                  _HashAddData
                  0x007930                  _I2CAddrSizeGet
                  0x00790a                  _I2CAddrSizeSet
                  0x0078bc                  _I2CGetDevAck
                  0x0077da                  _I2CInit
                  0x0079be                  _I2CRead
                  0x007ac8                  _I2CReadMulti
                  0x007a64                  _I2CReadReg
                  0x007838                  _I2CRestart
                  0x0077f6                  _I2CStart
                  0x00787a                  _I2CStop
                  0x0078fa                  _I2CTimeout
                  0x00793c                  _I2CWrite
                  0x007bc8                  _I2CWriteMulti
                  0x007b82                  _I2CWriteReg
                  0x0132fe                  _ICInit
                  0x018182                  _ICMPProcess
                  0x01346a                  _ICOff
                  0x013398                  _ICOn
                  0x0041d8                  _ICPos
                  0x016c1a                  _INTAttach
                  0x016bea                  _INTDetach
                  0x016d74                  _INTDisable
                  0x016d44                  _INTEnable
                  0x016c4c                  _INTInit
                  0x016ce4                  _INTPriority
                  0x006cda                  _IOButtonState
                  0x006c5e                  _IOGet
                  0x0067f0                  _IOInit
                  0x013256                  _IOInit_
                  0x0066d4                  _IOPut
                  0x00ca0a                  _IPAddressToString
                  0x01647a                  _IPGetHeader
                  0x01658c                  _IPPutHeader
                  0x016634                  _IPSetRxBuffer
                  0x015ba0                  _InitAppConfig
                  0x00c6d6                  _LFSRRand
                  0x00c696                  _LFSRSeedRand
                  0x00efb2                  _MACCalcRxChecksum
                  0x00ed4a                  _MACDiscardRx
                  0x00ef58                  _MACFlush
                  0x00f20a                  _MACGet
                  0x00f228                  _MACGetArray
                  0x00ed5c                  _MACGetFreeRxSize
                  0x00edd2                  _MACGetHeader
                  0x00ecc4                  _MACInit
                  0x00ed0e                  _MACIsLinked
                  0x00f202                  _MACIsMemCopyDone
                  0x00ed18                  _MACIsTxReady
                  0x00efda                  _MACMemCopyAsync
                  0x00f2ac                  _MACPowerDown
                  0x00f2b2                  _MACPowerUp
                  0x00ec92                  _MACProcess
                  0x00f26c                  _MACPut
                  0x00f28c                  _MACPutArray
                  0x00ef0a                  _MACPutGeneralHeader
                  0x00eeae                  _MACPutHeader
                  0x00ef9e                  _MACSetReadPtr
                  0x00ef7a                  _MACSetReadPtrInRx
                  0x00ef8a                  _MACSetWritePtr
                  0x012842                  _MD5AddData
                  0x012b44                  _MD5Calculate
                  0x012806                  _MD5Initialize
                  0x01504c                  _NBNSInit
                  0x015056                  _NBNSTask
                  0x00a6fa                  _NETCustomDelete
                  0x00a748                  _NETCustomExist
                  0x00a776                  _NETCustomLoad
                  0x00a61c                  _NETCustomSave
                  0x00a80e                  _NETSetParam
                  0x018218                  _OnConnectionFailed
                  0x01823c                  _OnConnectionPermLost
                  0x01822c                  _OnConnectionReestablished
                  0x018200                  _OnConnectionSuccessful
                  0x018222                  _OnConnectionTempLost
                  0x01824e                  _OnScanResult
                  0x0134d8                  _OneWireDecode
                  0x00774c                  _PWMDuty
                  0x007398                  _PWMInit
                  0x0077c2                  _PWMOff
                  0x007610                  _PWMOn
                  0x0137e0                  _PopRawWindow
                  0x006d98                  _PowerLed
                  0x0137ce                  _PushRawWindow
                  0x00abc0                  _RSSIStatus
                  0x00ab2c                  _RSSIUpdate
                  0x00abb4                  _RSSIValue
                  0x013630                  _RawCalculateChecksum
                  0x013990                  _RawGetByte
                  0x013974                  _RawGetIndex
                  0x00ed36                  _RawGetMgmtRxBuffer
                  0x00ecce                  _RawInit
                  0x013770                  _RawMountRxBuffer
                  0x01382e                  _RawRead
                  0x0139cc                  _RawSetByte
                  0x0138e8                  _RawSetIndex
                  0x0137a0                  _RawToRawCopy
                  0x01384a                  _RawWrite
                  0x01175c                  _Read16BitWFRegister
                  0x01170a                  _Read8BitWFRegister
                  0x0117f4                  _ReadWFArray
                  0x0119e2                  _ReenablePowerSaveMode
                  0x01481e                  _RenewDhcp
                  0x00ec58                  _RetrieveBinaryKey
                  0x007c2a                  _SMTPBeginUsage
                  0x0156d4                  _SMTPBusy
                  0x007c8a                  _SMTPEndUsage
                  0x008a56                  _SMTPFlush
                  0x00890c                  _SMTPIsBusy
                  0x008922                  _SMTPIsPutReady
                  0x008940                  _SMTPPut
                  0x0089e4                  _SMTPPutArray
                  0x008a64                  _SMTPPutDone
                  0x008a20                  _SMTPPutString
                  0x015710                  _SMTPReport
                  0x0156ba                  _SMTPSend
                  0x0088fc                  _SMTPSendMail
                  0x0155be                  _SMTPSetMsg
                  0x0154d2                  _SMTPSetServer
                  0x0154ba                  _SMTPStart
                  0x0156ec                  _SMTPStop
                  0x007ce4                  _SMTPTask
                  0x01625a                  _SNTPClient
                  0x016422                  _SNTPGetUTCSeconds
                  0x01624a                  _SNTPInit
                  0x01046e                  _SPIFlashBeginWrite
                  0x0107dc                  _SPIFlashEraseSector
                  0x01025e                  _SPIFlashInit
                  0x01037c                  _SPIFlashReadArray
                  0x01047c                  _SPIFlashWrite
                  0x01059a                  _SPIFlashWriteArray
                  0x0137f8                  _ScratchMount
                  0x01381c                  _ScratchUnmount
                  0x01314a                  _SendGetParamMsg
                  0x016a26                  _SendMgmtMsg
                  0x01370a                  _SendRAWDataFrame
                  0x013734                  _SendRAWManagementFrame
                  0x01311a                  _SendSetParamMsg
                  0x01713a                  _SetAppPowerSaveMode
                  0x011644                  _SetDhcpProgressState
                  0x017434                  _SetLogicalConnectionState
                  0x0171fa                  _SetPowerSaveState
                  0x017130                  _SetSleepNeeded
                  0x011636                  _SignalDHCPSuccessful
                  0x016aac                  _SignalMgmtConfirmReceivedEvent
                  0x01165c                  _SignalWiFiConnectionChanged
                  0x014804                  _StackApplications
                  0x0143c2                  _StackInit
                  0x01442c                  _StackTask
                  0x00c882                  _StringToIPAddress
                  0x014390                  _SwapARPPacket
                  0x00644e                  _TCPAdjustFIFOSize
                  0x00dffc                  _TCPClientClose
                  0x00dc48                  _TCPClientOpen
                  0x00463e                  _TCPClose
                  0x0048cc                  _TCPDiscard
                  0x00459a                  _TCPDisconnect
                  0x004b4c                  _TCPFindArrayEx
                  0x004dd6                  _TCPFindEx
                  0x004686                  _TCPFlush
                  0x00dae8                  _TCPGenericClose
                  0x00d9ca                  _TCPGenericOpen
                  0x004928                  _TCPGet
                  0x00499a                  _TCPGetArray
                  0x00465a                  _TCPGetRemoteInfo
                  0x004a5e                  _TCPGetRxFIFOFree
                  0x00489e                  _TCPGetTxFIFOFull
                  0x0112dc                  _TCPIPTask
                  0x004314                  _TCPInit
                  0x004572                  _TCPIsConnected
                  0x0048ea                  _TCPIsGetReady
                  0x0046a8                  _TCPIsPutReady
                  0x0043ea                  _TCPOpen
                  0x004b34                  _TCPPeek
                  0x004a8a                  _TCPPeekArray
                  0x005284                  _TCPProcess
                  0x0046fe                  _TCPPut
                  0x00479e                  _TCPPutArray
                  0x004880                  _TCPPutString
                  0x00dc72                  _TCPRead
                  0x00df1a                  _TCPRemote
                  0x00e0d4                  _TCPRxFlush
                  0x00e184                  _TCPRxLen
                  0x00e008                  _TCPServerClose
                  0x00db98                  _TCPServerDetach
                  0x00dc5e                  _TCPServerOpen
                  0x00411a                  _TCPSocketInitializer
                  0x004df4                  _TCPTick
                  0x00453e                  _TCPWasReset
                  0x00de3c                  _TCPWrite
                  0x00e014                  _TCPisConn
                  0x00dd1e                  _TCPpRead
                  0x01757e                  _TickConvertToMilliseconds
                  0x017512                  _TickGet
                  0x01751e                  _TickGetDiv256
                  0x01754e                  _TickGetDiv64K
                  0x01748e                  _TickInit
                  0x00714e                  _UARTBufferSize
                  0x007122                  _UARTFlush
                  0x006dd8                  _UARTInit
                  0x006fa0                  _UARTOff
                  0x006eca                  _UARTOn
                  0x0071d4                  _UARTRead
                  0x00702e                  _UARTRxInt
                  0x00728a                  _UARTWrite
                  0x007322                  _UARTWriteCh
                  0x00f496                  _UDPBroadcastOpen
                  0x00f57c                  _UDPClientClose
                  0x00f46e                  _UDPClientOpen
                  0x00fe24                  _UDPClose
                  0x01005e                  _UDPDiscard
                  0x00ff3e                  _UDPFlush
                  0x00f4aa                  _UDPGenericClose
                  0x00f2da                  _UDPGenericOpen
                  0x00ffda                  _UDPGet
                  0x010012                  _UDPGetArray
                  0x00fada                  _UDPInit
                  0x00ff9e                  _UDPIsGetReady
                  0x00fe02                  _UDPIsOpened
                  0x00fe84                  _UDPIsPutReady
                  0x00f442                  _UDPLocalPort
                  0x00f926                  _UDPMultiOn
                  0x00fa78                  _UDPMultiOpen
                  0x00fafc                  _UDPOpenEx
                  0x010086                  _UDPProcess
                  0x00febc                  _UDPPut
                  0x00fef0                  _UDPPutArray
                  0x00ff28                  _UDPPutString
                  0x00f620                  _UDPRead
                  0x00f59e                  _UDPRxFlush
                  0x00f58a                  _UDPRxLen
                  0x00f5ee                  _UDPRxOver
                  0x00f56e                  _UDPServerClose
                  0x00f45a                  _UDPServerOpen
                  0x00fe70                  _UDPSetRxBuffer
                  0x00fe5c                  _UDPSetTxBuffer
                  0x00fc1c                  _UDPTask
                  0x00f83e                  _UDPWrite
                  0x00f74e                  _UDPpRead
                  0x01709c                  _WFConfigureLowPowerMode
                  0x00aa52                  _WFConnect
                  0x00aaf0                  _WFDisconnect
                  0x011938                  _WFEintHandler
                  0x012d1a                  _WFEnableBroadcastProbeResponse
                  0x012cda                  _WFEnableDebugPrint
                  0x012cc8                  _WFEnableMRF24WB0MMode
                  0x00a9bc                  _WFGeneric
                  0x00b0ba                  _WFGetStat
                  0x00ecbc                  _WFGetTCBSize
                  0x0119ec                  _WFHardwareInit
                  0x00ae02                  _WFHibernate
                  0x0171a2                  _WFIsPsPollActive
                  0x00ae5e                  _WFOn
                  0x00ebd0                  _WFPeriodicGratuitousArp
                  0x011604                  _WFProcess
                  0x015dc6                  _WFProcessMgmtIndicateMsg
                  0x00ae8c                  _WFPsPollEnable
                  0x00ab10                  _WFScan
                  0x00abe2                  _WFScanList
                  0x00ad4e                  _WFSetChannel
                  0x016bb8                  _WFSetFuncState
                  0x00adb6                  _WFSetSecurity
                  0x00ae2a                  _WFSleep
                  0x017d28                  _WFSpiTxRx
                  0x00acb6                  _WFStopConnecting
                  0x01211a                  _WF_AssertionFailed
                  0x013e52                  _WF_CAGetBeaconPeriod
                  0x013ea2                  _WF_CAGetBeaconTimeout
                  0x013d62                  _WF_CAGetBeaconTimeoutAction
                  0x013da8                  _WF_CAGetChannelList
                  0x013d84                  _WF_CAGetDeauthAction
                  0x013e72                  _WF_CAGetDtimInterval
                  0x013bb6                  _WF_CAGetElements
                  0x013d42                  _WF_CAGetEventNotificationAction
                  0x013d24                  _WF_CAGetListRetryCount
                  0x013e18                  _WF_CAGetListenInterval
                  0x013c76                  _WF_CAGetMaxChannelTime
                  0x013c3c                  _WF_CAGetMinChannelTime
                  0x013cb0                  _WF_CAGetProbeDelay
                  0x013d02                  _WF_CAGetRssi
                  0x013ce0                  _WF_CAGetScanCount
                  0x013c10                  _WF_CAGetScanType
                  0x013e38                  _WF_CASetBeaconPeriod
                  0x013e92                  _WF_CASetBeaconTimeout
                  0x013d52                  _WF_CASetBeaconTimeoutAction
                  0x013d96                  _WF_CASetChannelList
                  0x013d74                  _WF_CASetDeauthAction
                  0x013dfe                  _WF_CASetDtimInterval
                  0x013aca                  _WF_CASetElements
                  0x013b82                  _WF_CASetElementsN
                  0x013d36                  _WF_CASetEventNotificationAction
                  0x013d14                  _WF_CASetListRetryCount
                  0x013de4                  _WF_CASetListenInterval
                  0x013c5c                  _WF_CASetMaxChannelTime
                  0x013c22                  _WF_CASetMinChannelTime
                  0x013c96                  _WF_CASetProbeDelay
                  0x013cf2                  _WF_CASetRssi
                  0x013cd0                  _WF_CASetScanCount
                  0x013c00                  _WF_CASetScanType
                  0x017440                  _WF_CMCheckConnectionState
                  0x01734e                  _WF_CMConnect
                  0x01739e                  _WF_CMDisconnect
                  0x01747c                  _WF_CMGetConnectContext
                  0x0173d6                  _WF_CMGetConnectionState
                  0x0157c4                  _WF_CPCreate
                  0x0157f2                  _WF_CPDelete
                  0x015ad2                  _WF_CPGetAdHocBehavior
                  0x01591e                  _WF_CPGetBssid
                  0x015aa8                  _WF_CPGetDefaultWepKeyIndex
                  0x015864                  _WF_CPGetElements
                  0x015816                  _WF_CPGetIds
                  0x015948                  _WF_CPGetNetworkType
                  0x015a2a                  _WF_CPGetSecurity
                  0x0158ca                  _WF_CPGetSsid
                  0x01588e                  _WF_CPGetSsidType
                  0x015988                  _WF_CPGetWPSCredentials
                  0x015972                  _WF_CPGetWepKeyType
                  0x015abe                  _WF_CPSetAdHocBehavior
                  0x01590a                  _WF_CPSetBssid
                  0x015a94                  _WF_CPSetDefaultWepKeyIndex
                  0x01583e                  _WF_CPSetElements
                  0x015934                  _WF_CPSetNetworkType
                  0x0159b2                  _WF_CPSetSecurity
                  0x0158a4                  _WF_CPSetSsid
                  0x01587a                  _WF_CPSetSsidType
                  0x01595e                  _WF_CPSetWepKeyType
                  0x01599e                  _WF_CPUpdatePMK
                  0x017dca                  _WF_Connect
                  0x013f42                  _WF_DisableModuleConnectionManager
                  0x01218a                  _WF_DisplayModuleAssertInfo
                  0x017fc4                  _WF_EintDisable
                  0x017fb2                  _WF_EintEnable
                  0x017fcc                  _WF_EintInit
                  0x017f44                  _WF_EintIsDisabled
                  0x017f56                  _WF_EintIsPending
                  0x012fd4                  _WF_EnableSWMultiCastFilter
                  0x012d2c                  _WF_GetDeviceInfo
                  0x012d92                  _WF_GetMacAddress
                  0x012fe6                  _WF_GetMacStats
                  0x017170                  _WF_GetPowerSaveState
                  0x012ee4                  _WF_GetRegionalDomain
                  0x012f40                  _WF_GetRtsThreshold
                  0x012ec4                  _WF_GetTxDataConfirm
                  0x012d0a                  _WF_GetTxMode
                  0x0171cc                  _WF_HibernateEnable
                  0x0182f2                  _WF_Init
                  0x012e4e                  _WF_MulticastGetConfig
                  0x012da2                  _WF_MulticastSetConfig
                  0x011bb2                  _WF_OutputConnectionContext
                  0x011c44                  _WF_OutputConnectionDebugMsg
                  0x011e8c                  _WF_OutputConnectionInfo
                  0x017b1e                  _WF_ProcessEvent
                  0x01714e                  _WF_PsPollDisable
                  0x0170dc                  _WF_PsPollEnable
                  0x017eb6                  _WF_Scan
                  0x017ef4                  _WF_ScanGetResult
                  0x012cea                  _WF_SetLinkDownThreshold
                  0x012d82                  _WF_SetMacAddress
                  0x012f5e                  _WF_SetMultiCastFilter
                  0x012f30                  _WF_SetPSK
                  0x012ed4                  _WF_SetRegionalDomain
                  0x012ef4                  _WF_SetRtsThreshold
                  0x012eb4                  _WF_SetTxDataConfirm
                  0x012cfa                  _WF_SetTxMode
                  0x017d1e                  _WF_SpiDisableChipSelect
                  0x017d16                  _WF_SpiEnableChipSelect
                  0x017cf6                  _WF_SpiInit
                  0x0180e4                  _WF_TxPowerGetFactoryMax
                  0x0180b8                  _WF_TxPowerGetMax
                  0x018076                  _WF_TxPowerSetMax
                  0x012f1e                  _WF_YieldPassphrase2Host
                  0x01742c                  _WFisConnected
                  0x017180                  _WFisPsPollEnabled
                  0x016ab6                  _WaitForMgmtResponse
                  0x016b56                  _WaitForMgmtResponseAndReadData
                  0x011580                  _WiFiTask
                  0x011790                  _Write16BitWFRegister
                  0x011734                  _Write8BitWFRegister
                  0x0117c4                  _WriteWFArray
                  0x00669c                  __ADC1Interrupt
                  0x016930                  __AddressError
                  0x0168dc                  __DefaultInterrupt
                  0x001a30                  __Dnorm
                  0x0017c8                  __Genld
                  0x0008b8                  __Geterrno
                  0x0008c4                  __Getmem
                  0x01317e                  __IC1Interrupt
                  0x0131b8                  __IC2Interrupt
                  0x0131d2                  __IC3Interrupt
                  0x0131fa                  __IC4Interrupt
                  0x013214                  __IC5Interrupt
                  0x01323c                  __IC6Interrupt
                  0x017f78                  __INT1Interrupt
                  0x0169ae                  __INT2Interrupt
                  0x0169d6                  __INT3Interrupt
                  0x0169fe                  __INT4Interrupt
                  0x001698                  __LDscale
                  0x001640                  __LDunscale
                  0x0011ee                  __Ldtob
                  0x000edc                  __Litob
                  0x016984                  __MathError
                  0x016906                  __OscillatorFail
                  0x0008d2                  __Printf
                  0x000be2                  __Putfld
                  0x000a4e                  __Puttxt
                  0x01695a                  __StackError
                  0x000448                  __Stoul
                  0x0175a4                  __T1Interrupt
                  0x017320                  __T5Interrupt
                  0x01685c                  __U1RXInterrupt
                  0x01687c                  __U2RXInterrupt
                  0x01689c                  __U3RXInterrupt
                  0x0168bc                  __U4RXInterrupt
                  0x000a44                  __Vacopy
                  0x0025e6                  ___adddf3
                  0x001c6a                  ___addsf3
                  0x0022b8                  ___divdf3
                  0x001e96                  ___divdi3
                  0x001b54                  ___divsf3
                  0x00213a                  ___divsi3
                  0x002158                  ___eqdf2
                  0x0020f6                  ___extendsfdf2
                  0x002162                  ___fixdfsi
                  0x0020b4                  ___fixsfsi
                  0x001bdc                  ___fixunssfsi
                  0x002578                  ___floatdidf
                  0x0021ba                  ___floatsidf
                  0x001c12                  ___floatsisf
                  0x0021c4                  ___gedf2
                  0x001bd8                  ___gesf2
                  0x0021c4                  ___gtdf2
                  0x001bd8                  ___gtsf2
                  0x0008d2                  ___iPrintf
                  0x000be2                  ___iPutfld
                  0x002158                  ___ledf2
                  0x002158                  ___ltdf2
                  0x001ed0                  ___moddi3
                  0x0021ce                  ___muldf3
                  0x001fa2                  ___muldi3
                  0x001ade                  ___mulp32eds3
                  0x001ade                  ___mulp32peds3
                  0x001d24                  ___mulsf3
                  0x001ade                  ___mulsi3
                  0x0021c0                  ___subdf3
                  0x001c68                  ___subsf3
                  0x001e80                  ___udivdi3
                  0x001db2                  ___udivmoddi3
                  0x001b34                  ___udivsi3
                  0x001e8e                  ___umoddi3
                  0x002134                  ___umodsi3
                  0x002448                  ___umuldi3
                  0x00275c                  __dPropagateNaN
                  0x000232                  __data_init
                  0x000232                  __data_init_standard
                  0x006666                  __dbgwrite
                  0x0024a6                  __dcompare
                  0x0026e0                  __dpack
                  0x002568                  __dreturnNaN
                  0x002738                  __dtype
                  0x0024f8                  __dunpack
                  0x002546                  __dunpack2
                  0x00256e                  __dunpack2exit
                  0x00237c                  __fPropagateNaN
                  0x00238e                  __fbopExit
                  0x002396                  __fbopReturnNaN
                  0x0023e8                  __fcompare
                  0x00036c                  __flash_helper1
                  0x000388                  __flash_helper2
                  0x00038c                  __flash_helper3
                  0x0003b0                  __flash_helper4
                  0x0003b2                  __flash_helper5
                  0x0003c0                  __flash_helper6
                  0x00239c                  __fpack
                  0x00248c                  __frexpf
                  0x00241e                  __funpack
                  0x00236c                  __funpack2
                  0x0007fe                  __isprintf
                  0x000222                  __psv_init
                  0x000200                  __resetPRI
                  0x014a82                  _attachSensorToAnBus
                  0x014960                  _attachSensorToDigioBus
                  0x0148ae                  _attachSensorToI2CBus
                  0x014b4a                  _attachSensorToUartBus
                  0x016082                  _attachToBoard
                  0x00ce8a                  _btohexa_high
                  0x00ceb2                  _btohexa_low
                  0x0179cc                  _cARPResolveMAC
                  0x00ab56                  _cRSSIUpdate
                  0x0156de                  _cSMTPBusy
                  0x0157b6                  _cSMTPReport
                  0x0156c4                  _cSMTPSend
                  0x01565e                  _cSMTPSetMsg
                  0x015572                  _cSMTPSetServer
                  0x0154c4                  _cSMTPStart
                  0x0156f6                  _cSMTPStop
                  0x00db88                  _cTCPGenericClose
                  0x00dabe                  _cTCPGenericOpen
                  0x00de1a                  _cTCPRead
                  0x00dfe0                  _cTCPRemote
                  0x00e174                  _cTCPRxFlush
                  0x00e22c                  _cTCPRxLen
                  0x00dc38                  _cTCPServerDetach
                  0x00defa                  _cTCPWrite
                  0x00e0c2                  _cTCPisConn
                  0x00ddd0                  _cTCPpRead
                  0x00f53a                  _cUDPGenericClose
                  0x00f3a2                  _cUDPGenericOpen
                  0x00f9d0                  _cUDPMultiOn
                  0x00f8ea                  _cUDPWrite
                  0x00b0fa                  _cWFConnect
                  0x00af42                  _cWFDisconnect
                  0x00b10e                  _cWFPsPollDisable
                  0x00b11a                  _cWFPsPollEnable
                  0x00af62                  _cWFScan
                  0x00afee                  _cWFScanList
                  0x00b0c2                  _cWFStopConnecting
                  0x000820                  _calloc
                  0x00e7b6                  _close_socket
                  0x0160ce                  _configure
                  0x00e9e4                  _create_chunked_post
                  0x00e618                  _create_http_socket
                  0x00e86a                  _create_large_post
                  0x016074                  _delet_
                  0x016042                  _delete_
                  0x001ac8                  _div
                  0x00e6bc                  _do_http_request
                  0x00e7a2                  _do_http_request_and_get_response
                  0x00e6f8                  _do_http_request_header
                  0x00ea9c                  _end_chunked_request
                  0x00e9d6                  _end_http_post_request
                  0x0006e6                  _free
                  0x004110                  _g_RawAccessOutOfBoundsMask
                  0x016146                  _get
                  0x00ea4c                  _get_chunked_text
                  0x00e7dc                  _get_header_from_response
                  0x00e23e                  _get_http_request
                  0x00ce14                  _hexatob
                  0x00e732                  _http_get_response
                  0x01711e                  _isSleepNeeded
                  0x000886                  _isspace
                  0x00178e                  _ldiv
                  0x0020ac                  _log10f
                  0x001ffe                  _logf
                  0x011288                  _main
                  0x00074e                  _malloc
                  0x0008a4                  _memchr
                  0x000660                  _memcmp
                  0x00067c                  _memcpy
                  0x0003c6                  _memset
                  0x016018                  _new
                  0x016be4                  _nothigToDo
                  0x017c12                  _postSensorValue
                  0x016f26                  _pvPortMalloc
                  0x017206                  _pxPortInitialiseStack
                  0x000594                  _rand
                  0x016196                  _readError
                  0x01803a                  _read_register
                  0x01610a                  _set
                  0x017fde                  _set_register
                  0x0007fe                  _sprintf
                  0x00063e                  _srand
                  0x00042a                  _strcat
                  0x00068a                  _strchr
                  0x000570                  _strcmp
                  0x00040c                  _strcpy
                  0x000862                  _strcspn
                  0x00ced8                  _stricmppgm2ram
                  0x00041c                  _strlen
                  0x00d0de                  _strnchr
                  0x0006c4                  _strncpy
                  0x00083e                  _strspn
                  0x00069c                  _strstr
                  0x0003d4                  _strtok
                  0x00d05c                  _strupr
                  0x00cf8a                  _swapl
                  0x00cf70                  _swaps
                  0x000896                  _tolower
                  0x00cce6                  _uitoa
                  0x00cd64                  _ultoa
                  0x0125ca                  _uxQueueMessagesWaiting
                  0x0125e2                  _uxQueueMessagesWaitingFromISR
                  0x00a038                  _uxTaskGetNumberOfTasks
                  0x0175bc                  _vListInitialise
                  0x0175ee                  _vListInitialiseItem
                  0x017640                  _vListInsert
                  0x0175fc                  _vListInsertEnd
                  0x0176a0                  _vListRemove
                  0x0172be                  _vPortEndScheduler
                  0x0172f2                  _vPortEnterCritical
                  0x017306                  _vPortExitCritical
                  0x017032                  _vPortFree
                  0x017096                  _vPortInitialiseBlocks
                  0x01835a                  _vPortYield
                  0x0125f2                  _vQueueDelete
                  0x00a0dc                  _vTaskCleanUpResources
                  0x009c80                  _vTaskDelay
                  0x009be8                  _vTaskDelayUntil
                  0x009b7c                  _vTaskDelete
                  0x009f40                  _vTaskEndScheduler
                  0x00a040                  _vTaskIncrementTick
                  0x00a3b8                  _vTaskMissedYield
                  0x00a260                  _vTaskPlaceOnEventList
                  0x00a5c2                  _vTaskPriorityDisinherit
                  0x00a550                  _vTaskPriorityInherit
                  0x009cdc                  _vTaskPrioritySet
                  0x009e40                  _vTaskResume
                  0x00a338                  _vTaskSetTimeOutState
                  0x009f0c                  _vTaskStartScheduler
                  0x009db4                  _vTaskSuspend
                  0x009f56                  _vTaskSuspendAll
                  0x00a206                  _vTaskSwitchContext
                  0x01708e                  _xPortGetFreeHeapSize
                  0x017290                  _xPortStartScheduler
                  0x0121da                  _xQueueCreate
                  0x01227e                  _xQueueCreateMutex
                  0x012426                  _xQueueGenericReceive
                  0x0122e2                  _xQueueGenericSend
                  0x0123c6                  _xQueueGenericSendFromISR
                  0x01278c                  _xQueueIsQueueEmptyFromISR
                  0x0127cc                  _xQueueIsQueueFullFromISR
                  0x012568                  _xQueueReceiveFromISR
                  0x00a34c                  _xTaskCheckForTimeOut
                  0x009a86                  _xTaskGenericCreate
                  0x00a544                  _xTaskGetCurrentTaskHandle
                  0x00a024                  _xTaskGetTickCount
                  0x009e0e                  _xTaskIsTaskSuspended
                  0x00a2b6                  _xTaskRemoveFromEventList
                  0x009f62                  _xTaskResumeAll
                  0x009ea2                  _xTaskResumeFromISR
                  0x0007f2                  sprintf.o:_prout
                  0x00a3c2                  tasks.o:_prvIdleTask
                  0x01813a                  x_analog_in.o:_An_i_attach
                  0x0180fe                  x_analog_in.o:_An_i_ctor
                  0x018114                  x_analog_in.o:_An_i_dtor
                  0x01815c                  x_analog_in.o:_An_i_getan_i
                  0x017720                  x_analog_temp.o:_An_Temp_attach
                  0x0176e4                  x_analog_temp.o:_An_Temp_ctor
                  0x0176fa                  x_analog_temp.o:_An_Temp_dtor
                  0x017742                  x_analog_temp.o:_An_Temp_get
                  0x016752                  x_digital_io.o:_Dig_io_attach
                  0x01667a                  x_digital_io.o:_Dig_io_ctor
                  0x016714                  x_digital_io.o:_Dig_io_dtor
                  0x016836                  x_digital_io.o:_Dig_io_get_dig_io
                  0x016792                  x_digital_io.o:_Dig_io_set_dig_io
                  0x01482c                  x_groveboard.o:_Board_ctor
                  0x014d18                  x_rht03.o:_RHT03_attach
                  0x014d3c                  x_rht03.o:_RHT03_configure
                  0x014cc0                  x_rht03.o:_RHT03_ctor
                  0x014cf2                  x_rht03.o:_RHT03_dtor
                  0x015006                  x_rht03.o:_RHT03_get
                  0x014d78                  x_rht03.o:_RHT03_set

Memory Configuration

Name             Origin             Length             Attributes
data             0x000800           0x004000           a !xr
reset            0x000000           0x000004  
ivt              0x000004           0x0000fc  
aivt             0x000104           0x0000fc  
program          0x000200           0x02a9f8           xr
config4          0x02abf8           0x000002  
config3          0x02abfa           0x000002  
config2          0x02abfc           0x000002  
config1          0x02abfe           0x000002  
*default*        0x000000           0xffffffff  

Linker script and memory map

LOAD Announce.o
LOAD ARP.o
LOAD ARPlib.o
LOAD BigInt.o
LOAD Delay.o
LOAD DHCP.o
LOAD DHCPs.o
LOAD DNS.o
LOAD DNSs.o
LOAD DynDNS.o
LOAD ENCX24J600.o
LOAD FTP.o
LOAD FTPlib.o
LOAD Hashes.o
LOAD heap_2.o
LOAD Helpers.o
LOAD HTTP2.o
LOAD HWInit.o
LOAD HWlib.o
LOAD ICMP.o
LOAD INTlib.o
LOAD IP.o
LOAD ISRs.o
LOAD list.o
LOAD Main.o
LOAD MPFS2.o
LOAD NBNS.o
LOAD NETlib.o
LOAD port.o
LOAD portasm_PIC24.o
LOAD queue.o
LOAD Random.o
LOAD Reboot.o
LOAD Regs.o
LOAD RTCClib.o
LOAD SMTP.o
LOAD SMTPlib.o
LOAD SNTP.o
LOAD SPIFlash.o
LOAD StackTsk.o
LOAD taskFlyport.o
LOAD tasks.o
LOAD TCP.o
LOAD TCPIP_Utils.o
LOAD TCPlib.o
LOAD Tick.o
LOAD UDP.o
LOAD UDPlib.o
LOAD WFConnectionAlgorithm.o
LOAD WFConnectionManager.o
LOAD WFConnectionProfile.o
LOAD WFDataTxRx.o
LOAD WFDebugStrings.o
LOAD WFDriverCom.o
LOAD WFDriverCom_24G.o
LOAD WFDriverRaw.o
LOAD WFDriverRaw_24G.o
LOAD WFEventHandler.o
LOAD WFInit.o
LOAD WFMac.o
LOAD WFMac_24G.o
LOAD WFMgmtMsg.o
LOAD WFMgmtMsg_24G.o
LOAD WFParamMsg.o
LOAD WFParamMsg_24G.o
LOAD WFPowerSave.o
LOAD WFScan.o
LOAD WFTxPower.o
LOAD WF_Config.o
LOAD WF_Eint.o
LOAD WF_Events.o
LOAD WF_Spi.o
LOAD WF_Utils.o
LOAD x_analog_in.o
LOAD x_analog_temp.o
LOAD x_compose.o
LOAD x_digital_io.o
LOAD x_groveboard.o
LOAD x_grovelib.o
LOAD x_heap.o
LOAD x_httplib.o
LOAD x_i2c_devices.o
LOAD x_input_capture.o
LOAD x_rht03.o
LOAD ZeroconfHelper.o
LOAD ZeroconfLinkLocal.o
LOAD ZeroconfMulticastDNS.o
LOAD c:/program files/microchip/mplab c30/bin/bin/../../lib/PIC24F\libpPIC24Fxxx-coff.a
                    0x2abfa                  __CONFIG3 = 0x2abfa
                    0x2abfc                  __CONFIG2 = 0x2abfc
                    0x2abfe                  __CONFIG1 = 0x2abfe
                    0x0004                  __IVT_BASE = 0x4
                    0x0104                  __AIVT_BASE = 0x104
                    0x0800                  __DATA_BASE = 0x800
                    0x0200                  __CODE_BASE = 0x200

.reset            0x000000          0x4
                  0x000000          0x2 SHORT 0x200 <code 339> (__reset)
                  0x000001          0x2 SHORT 0x4
                  0x000002          0x2 SHORT 0x0 ((<code 339> (__reset) >> 0x10) & 0x7f)
                  0x000003          0x2 SHORT 0x0

.text             0x000200       0x2578
 *(.init)
 .init            0x000200         0x32 c:/program files/microchip/mplab c30/bin/bin/../../lib\libpic30-coff.a(crt0_standard.o)
                  0x000200                  _resetPRI
                  0x000200                  _reset
                  0x000222                  _psv_init
 .init            0x000232         0x5e c:/program files/microchip/mplab c30/bin/bin/../../lib\libpic30-coff.a(data_init_standard.o)
                  0x000232                  _data_init_standard
                  0x000232                  _data_init
 *(.user_init)
 *(.handle)
 .handle          0x000290         0xdc jump_table
 *(.libc)
 .libc            0x00036c         0x5a c:/program files/microchip/mplab c30/bin/bin/../../lib\libpic30-coff.a(flash_helper.o)
                  0x00036c                  _flash_helper1
                  0x000388                  _flash_helper2
                  0x00038c                  _flash_helper3
                  0x0003b0                  _flash_helper4
                  0x0003b2                  _flash_helper5
                  0x0003c0                  _flash_helper6
 .libc            0x0003c6          0xe c:/program files/microchip/mplab c30/bin/bin/../../lib\libc-coff.a(memset.o)
                  0x0003c6                  memset
 .libc            0x0003d4         0x38 c:/program files/microchip/mplab c30/bin/bin/../../lib\libc-coff.a(strtok.o)
                  0x0003d4                  strtok
 .libc            0x00040c         0x10 c:/program files/microchip/mplab c30/bin/bin/../../lib\libc-coff.a(strcpy.o)
                  0x00040c                  strcpy
 .libc            0x00041c          0xe c:/program files/microchip/mplab c30/bin/bin/../../lib\libc-coff.a(strlen.o)
                  0x00041c                  strlen
 .libc            0x00042a         0x1e c:/program files/microchip/mplab c30/bin/bin/../../lib\libc-coff.a(strcat.o)
                  0x00042a                  strcat
 .libc            0x000448        0x128 c:/program files/microchip/mplab c30/bin/bin/../../lib\libc-coff.a(xstoul.o)
                  0x000448                  _Stoul
 .libc            0x000570         0x24 c:/program files/microchip/mplab c30/bin/bin/../../lib\libc-coff.a(strcmp.o)
                  0x000570                  strcmp
 .libc            0x000594         0xaa c:/program files/microchip/mplab c30/bin/bin/../../lib\libc-coff.a(rand.o)
                  0x000594                  rand
 .libc            0x00063e         0x22 c:/program files/microchip/mplab c30/bin/bin/../../lib\libc-coff.a(srand.o)
                  0x00063e                  srand
 .libc            0x000660         0x1c c:/program files/microchip/mplab c30/bin/bin/../../lib\libc-coff.a(memcmp.o)
                  0x000660                  memcmp
 .libc            0x00067c          0xe c:/program files/microchip/mplab c30/bin/bin/../../lib\libc-coff.a(memcpy.o)
                  0x00067c                  memcpy
 .libc            0x00068a         0x12 c:/program files/microchip/mplab c30/bin/bin/../../lib\libc-coff.a(strchr.o)
                  0x00068a                  strchr
 .libc            0x00069c         0x28 c:/program files/microchip/mplab c30/bin/bin/../../lib\libc-coff.a(strstr.o)
                  0x00069c                  strstr
 .libc            0x0006c4         0x22 c:/program files/microchip/mplab c30/bin/bin/../../lib\libc-coff.a(strncpy.o)
                  0x0006c4                  strncpy
 .libc            0x0006e6         0x68 c:/program files/microchip/mplab c30/bin/bin/../../lib\libc-coff.a(free.o)
                  0x0006e6                  free
 .libc            0x00074e         0xa4 c:/program files/microchip/mplab c30/bin/bin/../../lib\libc-coff.a(malloc.o)
                  0x00074e                  malloc
 .libc            0x0007f2         0x2e c:/program files/microchip/mplab c30/bin/bin/../../lib\libc-coff.a(sprintf.o)
                  0x0007f2                  sprintf.o:_prout
                  0x0007fe                  _isprintf
                  0x0007fe                  sprintf
 .libc            0x000820         0x1e c:/program files/microchip/mplab c30/bin/bin/../../lib\libc-coff.a(calloc.o)
                  0x000820                  calloc
 .libc            0x00083e         0x24 c:/program files/microchip/mplab c30/bin/bin/../../lib\libc-coff.a(strspn.o)
                  0x00083e                  strspn
 .libc            0x000862         0x24 c:/program files/microchip/mplab c30/bin/bin/../../lib\libc-coff.a(strcspn.o)
                  0x000862                  strcspn
 .libc            0x000886         0x10 c:/program files/microchip/mplab c30/bin/bin/../../lib\libc-coff.a(isspace.o)
                  0x000886                  isspace
 .libc            0x000896          0xe c:/program files/microchip/mplab c30/bin/bin/../../lib\libc-coff.a(tolower.o)
                  0x000896                  tolower
 .libc            0x0008a4         0x14 c:/program files/microchip/mplab c30/bin/bin/../../lib\libc-coff.a(memchr.o)
                  0x0008a4                  memchr
 .libc            0x0008b8          0xc c:/program files/microchip/mplab c30/bin/bin/../../lib\libc-coff.a(errno.o)
                  0x0008b8                  _Geterrno
 .libc            0x0008c4          0xe c:/program files/microchip/mplab c30/bin/bin/../../lib\libc-coff.a(xgetmem.o)
                  0x0008c4                  _Getmem
 .libc            0x0008d2        0x172 c:/program files/microchip/mplab c30/bin/bin/../../lib\libc-coff.a(xprintf.o)
                  0x0008d2                  _Printf
                  0x0008d2                  __iPrintf
 .libc            0x000a44          0xa c:/program files/microchip/mplab c30/bin/bin/../../lib\libc-coff.a(xvacopy.o)
                  0x000a44                  _Vacopy
 .libc            0x000a4e        0x194 c:/program files/microchip/mplab c30/bin/bin/../../lib\libc-coff.a(xputtxt.o)
                  0x000a4e                  _Puttxt
 .libc            0x000be2        0x2fa c:/program files/microchip/mplab c30/bin/bin/../../lib\libc-coff.a(xputfld.o)
                  0x000be2                  __iPutfld
                  0x000be2                  _Putfld
 .libc            0x000edc        0x312 c:/program files/microchip/mplab c30/bin/bin/../../lib\libc-coff.a(xlitob.o)
                  0x000edc                  _Litob
 .libc            0x0011ee        0x452 c:/program files/microchip/mplab c30/bin/bin/../../lib\libc-coff.a(xldtob.o)
                  0x0011ee                  _Ldtob
 .libc            0x001640         0x58 c:/program files/microchip/mplab c30/bin/bin/../../lib\libc-coff.a(xldunsca.o)
                  0x001640                  _LDunscale
 .libc            0x001698         0xf6 c:/program files/microchip/mplab c30/bin/bin/../../lib\libc-coff.a(xldscale.o)
                  0x001698                  _LDscale
 .libc            0x00178e         0x3a c:/program files/microchip/mplab c30/bin/bin/../../lib\libc-coff.a(ldiv.o)
                  0x00178e                  ldiv
 .libc            0x0017c8        0x268 c:/program files/microchip/mplab c30/bin/bin/../../lib\libc-coff.a(xgenld.o)
                  0x0017c8                  _Genld
 .libc            0x001a30         0x98 c:/program files/microchip/mplab c30/bin/bin/../../lib\libc-coff.a(xdnorm.o)
                  0x001a30                  _Dnorm
 .libc            0x001ac8         0x16 c:/program files/microchip/mplab c30/bin/bin/../../lib\libc-coff.a(div.o)
                  0x001ac8                  div
 .libc            0x001ade          0xc c:/program files/microchip/mplab c30/bin/bin/../../lib\libm-coff.a(mulsi3.o)
                  0x001ade                  __mulp32peds3
                  0x001ade                  __mulsi3
                  0x001ade                  __mulp32eds3
 .libc            0x001aea         0x2c c:/program files/microchip/mplab c30/bin/bin/../../lib\libpic30-coff.a(sbrk.o)
                  0x001aea                  sbrk
 .libc            0x001b16         0x1e c:/program files/microchip/mplab c30/bin/bin/../../lib\libpic30-coff.a(brk.o)
                  0x001b16                  brk
 *(.libm)
 .libm            0x001b34         0x20 c:/program files/microchip/mplab c30/bin/bin/../../lib\libm-coff.a(udivsi3.o)
                  0x001b34                  __udivsi3
 .libm            0x001b54         0x84 c:/program files/microchip/mplab c30/bin/bin/../../lib\libm-coff.a(divsf3.o)
                  0x001b54                  __divsf3
 .libm            0x001bd8          0x4 c:/program files/microchip/mplab c30/bin/bin/../../lib\libm-coff.a(fgtge.o)
                  0x001bd8                  __gesf2
                  0x001bd8                  __gtsf2
 .libm            0x001bdc         0x36 c:/program files/microchip/mplab c30/bin/bin/../../lib\libm-coff.a(fixunssfsi.o)
                  0x001bdc                  __fixunssfsi
 .libm            0x001c12         0x56 c:/program files/microchip/mplab c30/bin/bin/../../lib\libm-coff.a(floatsisf.o)
                  0x001c12                  __floatsisf
 .libm            0x001c68         0xbc c:/program files/microchip/mplab c30/bin/bin/../../lib\libm-coff.a(addsf3.o)
                  0x001c68                  __subsf3
                  0x001c6a                  __addsf3
 .libm            0x001d24         0x68 c:/program files/microchip/mplab c30/bin/bin/../../lib\libm-coff.a(mulsf3.o)
                  0x001d24                  __mulsf3
 .libm            0x001d8c        0x216 c:/program files/microchip/mplab c30/bin/bin/../../lib\libm-coff.a(divmoddi3.o)
                  0x001db2                  __udivmoddi3
                  0x001e80                  __udivdi3
                  0x001e8e                  __umoddi3
                  0x001e96                  __divdi3
                  0x001ed0                  __moddi3
 .libm            0x001fa2         0x5c c:/program files/microchip/mplab c30/bin/bin/../../lib\libm-coff.a(muldi3.o)
                  0x001fa2                  __muldi3
 .libm            0x001ffe         0xae c:/program files/microchip/mplab c30/bin/bin/../../lib\libm-coff.a(logf.o)
                  0x001ffe                  logf
 .libm            0x0020ac          0x8 c:/program files/microchip/mplab c30/bin/bin/../../lib\libm-coff.a(log10f.o)
                  0x0020ac                  log10f
 .libm            0x0020b4         0x42 c:/program files/microchip/mplab c30/bin/bin/../../lib\libm-coff.a(fixsfsi.o)
                  0x0020b4                  __fixsfsi
 .libm            0x0020f6         0x3e c:/program files/microchip/mplab c30/bin/bin/../../lib\libm-coff.a(extendsfdf.o)
                  0x0020f6                  __extendsfdf2
 .libm            0x002134          0x6 c:/program files/microchip/mplab c30/bin/bin/../../lib\libm-coff.a(umodsi3.o)
                  0x002134                  __umodsi3
 .libm            0x00213a         0x1e c:/program files/microchip/mplab c30/bin/bin/../../lib\libm-coff.a(divsi3.o)
                  0x00213a                  __divsi3
 .libm            0x002158          0xa c:/program files/microchip/mplab c30/bin/bin/../../lib\libm-coff.a(deqltle.o)
                  0x002158                  __eqdf2
                  0x002158                  __ltdf2
                  0x002158                  __ledf2
 .libm            0x002162         0x58 c:/program files/microchip/mplab c30/bin/bin/../../lib\libm-coff.a(fixdfsi.o)
                  0x002162                  __fixdfsi
 .libm            0x0021ba          0x6 c:/program files/microchip/mplab c30/bin/bin/../../lib\libm-coff.a(floatsidf.o)
                  0x0021ba                  __floatsidf
 .libm            0x0021c0          0x4 c:/program files/microchip/mplab c30/bin/bin/../../lib\libm-coff.a(subdf3.o)
                  0x0021c0                  __subdf3
 .libm            0x0021c4          0xa c:/program files/microchip/mplab c30/bin/bin/../../lib\libm-coff.a(dgtge.o)
                  0x0021c4                  __gtdf2
                  0x0021c4                  __gedf2
 .libm            0x0021ce         0xea c:/program files/microchip/mplab c30/bin/bin/../../lib\libm-coff.a(muldf3.o)
                  0x0021ce                  __muldf3
 .libm            0x0022b8         0xb4 c:/program files/microchip/mplab c30/bin/bin/../../lib\libm-coff.a(divdf3.o)
                  0x0022b8                  __divdf3
 .libm            0x00236c         0x10 c:/program files/microchip/mplab c30/bin/bin/../../lib\libm-coff.a(funpack2.o)
                  0x00236c                  _funpack2
 .libm            0x00237c         0x20 c:/program files/microchip/mplab c30/bin/bin/../../lib\libm-coff.a(futil.o)
                  0x00237c                  _fPropagateNaN
                  0x00238e                  _fbopExit
                  0x002396                  _fbopReturnNaN
 .libm            0x00239c         0x4c c:/program files/microchip/mplab c30/bin/bin/../../lib\libm-coff.a(fpack.o)
                  0x00239c                  _fpack
 .libm            0x0023e8         0x36 c:/program files/microchip/mplab c30/bin/bin/../../lib\libm-coff.a(fcompare.o)
                  0x0023e8                  _fcompare
 .libm            0x00241e         0x2a c:/program files/microchip/mplab c30/bin/bin/../../lib\libm-coff.a(funpack.o)
                  0x00241e                  _funpack
 .libm            0x002448         0x44 c:/program files/microchip/mplab c30/bin/bin/../../lib\libm-coff.a(umuldi3.o)
                  0x002448                  __umuldi3
 .libm            0x00248c         0x1a c:/program files/microchip/mplab c30/bin/bin/../../lib\libm-coff.a(_frexpf.o)
                  0x00248c                  _frexpf
 .libm            0x0024a6         0x52 c:/program files/microchip/mplab c30/bin/bin/../../lib\libm-coff.a(dcompare.o)
                  0x0024a6                  _dcompare
 .libm            0x0024f8         0x4e c:/program files/microchip/mplab c30/bin/bin/../../lib\libm-coff.a(dunpack.o)
                  0x0024f8                  _dunpack
 .libm            0x002546         0x32 c:/program files/microchip/mplab c30/bin/bin/../../lib\libm-coff.a(dunpack2.o)
                  0x002546                  _dunpack2
                  0x002568                  _dreturnNaN
                  0x00256e                  _dunpack2exit
 .libm            0x002578         0x6e c:/program files/microchip/mplab c30/bin/bin/../../lib\libm-coff.a(floatdidf.o)
                  0x002578                  __floatdidf
 .libm            0x0025e6         0xfa c:/program files/microchip/mplab c30/bin/bin/../../lib\libm-coff.a(adddf3.o)
                  0x0025e6                  __adddf3
 .libm            0x0026e0         0x58 c:/program files/microchip/mplab c30/bin/bin/../../lib\libm-coff.a(dpack.o)
                  0x0026e0                  _dpack
 .libm            0x002738         0x24 c:/program files/microchip/mplab c30/bin/bin/../../lib\libm-coff.a(dtype.o)
                  0x002738                  _dtype
 .libm            0x00275c         0x1c c:/program files/microchip/mplab c30/bin/bin/../../lib\libm-coff.a(dpropagateNaN.o)
                  0x00275c                  _dPropagateNaN
 *(.libdsp)
 *(.lib*)

usercode
 *(usercode)

__CONFIG3
 *(__CONFIG3.sec)

__CONFIG2         0x02abfc          0x2
 *(__CONFIG2.sec)
 __CONFIG2.sec    0x02abfc          0x2 Main.o

__CONFIG1         0x02abfe          0x2
 *(__CONFIG1.sec)
 __CONFIG1.sec    0x02abfe          0x2 Main.o

.comment
 *(.comment)

.debug_info
 *(.debug_info)
 *(.gnu.linkonce.wi.*)

.debug_abbrev
 *(.debug_abbrev)

.debug_line
 *(.debug_line)

.debug_frame
 *(.debug_frame)

.debug_str
 *(.debug_str)

.debug_loc
 *(.debug_loc)

.debug_macinfo
 *(.debug_macinfo)

.debug_pubnames
 *(.debug_pubnames)

.debug_ranges
 *(.debug_ranges)

.debug_aranges
 *(.debug_aranges)

.ivt              0x000004         0xfc
                  0x000004          0x4 LONG 0x168dc DEFINED (__ReservedTrap0)?<code 339> (__ReservedTrap0):<code 339> (__DefaultInterrupt)
                  0x000006          0x4 LONG 0x16906 DEFINED (__OscillatorFail)?<code 339> (__OscillatorFail):<code 339> (__DefaultInterrupt)
                  0x000008          0x4 LONG 0x16930 DEFINED (__AddressError)?<code 339> (__AddressError):<code 339> (__DefaultInterrupt)
                  0x00000a          0x4 LONG 0x1695a DEFINED (__StackError)?<code 339> (__StackError):<code 339> (__DefaultInterrupt)
                  0x00000c          0x4 LONG 0x16984 DEFINED (__MathError)?<code 339> (__MathError):<code 339> (__DefaultInterrupt)
                  0x00000e          0x4 LONG 0x168dc DEFINED (__ReservedTrap5)?<code 339> (__ReservedTrap5):<code 339> (__DefaultInterrupt)
                  0x000010          0x4 LONG 0x168dc DEFINED (__ReservedTrap6)?<code 339> (__ReservedTrap6):<code 339> (__DefaultInterrupt)
                  0x000012          0x4 LONG 0x168dc DEFINED (__ReservedTrap7)?<code 339> (__ReservedTrap7):<code 339> (__DefaultInterrupt)
                  0x000014          0x4 LONG 0x168dc DEFINED (__INT0Interrupt)?<code 339> (__INT0Interrupt):<code 339> (__DefaultInterrupt)
                  0x000016          0x4 LONG 0x1317e DEFINED (__IC1Interrupt)?<code 339> (__IC1Interrupt):<code 339> (__DefaultInterrupt)
                  0x000018          0x4 LONG 0x168dc DEFINED (__OC1Interrupt)?<code 339> (__OC1Interrupt):<code 339> (__DefaultInterrupt)
                  0x00001a          0x4 LONG 0x175a4 DEFINED (__T1Interrupt)?<code 339> (__T1Interrupt):<code 339> (__DefaultInterrupt)
                  0x00001c          0x4 LONG 0x168dc DEFINED (__Interrupt4)?<code 339> (__Interrupt4):<code 339> (__DefaultInterrupt)
                  0x00001e          0x4 LONG 0x131b8 DEFINED (__IC2Interrupt)?<code 339> (__IC2Interrupt):<code 339> (__DefaultInterrupt)
                  0x000020          0x4 LONG 0x168dc DEFINED (__OC2Interrupt)?<code 339> (__OC2Interrupt):<code 339> (__DefaultInterrupt)
                  0x000022          0x4 LONG 0x168dc DEFINED (__T2Interrupt)?<code 339> (__T2Interrupt):<code 339> (__DefaultInterrupt)
                  0x000024          0x4 LONG 0x168dc DEFINED (__T3Interrupt)?<code 339> (__T3Interrupt):<code 339> (__DefaultInterrupt)
                  0x000026          0x4 LONG 0x168dc DEFINED (__SPI1ErrInterrupt)?<code 339> (__SPI1ErrInterrupt):<code 339> (__DefaultInterrupt)
                  0x000028          0x4 LONG 0x168dc DEFINED (__SPI1Interrupt)?<code 339> (__SPI1Interrupt):<code 339> (__DefaultInterrupt)
                  0x00002a          0x4 LONG 0x1685c DEFINED (__U1RXInterrupt)?<code 339> (__U1RXInterrupt):<code 339> (__DefaultInterrupt)
                  0x00002c          0x4 LONG 0x168dc DEFINED (__U1TXInterrupt)?<code 339> (__U1TXInterrupt):<code 339> (__DefaultInterrupt)
                  0x00002e          0x4 LONG 0x669c DEFINED (__ADC1Interrupt)?<code 339> (__ADC1Interrupt):<code 339> (__DefaultInterrupt)
                  0x000030          0x4 LONG 0x168dc DEFINED (__Interrupt14)?<code 339> (__Interrupt14):<code 339> (__DefaultInterrupt)
                  0x000032          0x4 LONG 0x168dc DEFINED (__Interrupt15)?<code 339> (__Interrupt15):<code 339> (__DefaultInterrupt)
                  0x000034          0x4 LONG 0x168dc DEFINED (__SI2C1Interrupt)?<code 339> (__SI2C1Interrupt):<code 339> (__DefaultInterrupt)
                  0x000036          0x4 LONG 0x168dc DEFINED (__MI2C1Interrupt)?<code 339> (__MI2C1Interrupt):<code 339> (__DefaultInterrupt)
                  0x000038          0x4 LONG 0x168dc DEFINED (__CompInterrupt)?<code 339> (__CompInterrupt):<code 339> (__DefaultInterrupt)
                  0x00003a          0x4 LONG 0x168dc DEFINED (__CNInterrupt)?<code 339> (__CNInterrupt):<code 339> (__DefaultInterrupt)
                  0x00003c          0x4 LONG 0x17f78 DEFINED (__INT1Interrupt)?<code 339> (__INT1Interrupt):<code 339> (__DefaultInterrupt)
                  0x00003e          0x4 LONG 0x168dc DEFINED (__Interrupt21)?<code 339> (__Interrupt21):<code 339> (__DefaultInterrupt)
                  0x000040          0x4 LONG 0x168dc DEFINED (__IC7Interrupt)?<code 339> (__IC7Interrupt):<code 339> (__DefaultInterrupt)
                  0x000042          0x4 LONG 0x168dc DEFINED (__IC8Interrupt)?<code 339> (__IC8Interrupt):<code 339> (__DefaultInterrupt)
                  0x000044          0x4 LONG 0x168dc DEFINED (__Interrupt24)?<code 339> (__Interrupt24):<code 339> (__DefaultInterrupt)
                  0x000046          0x4 LONG 0x168dc DEFINED (__OC3Interrupt)?<code 339> (__OC3Interrupt):<code 339> (__DefaultInterrupt)
                  0x000048          0x4 LONG 0x168dc DEFINED (__OC4Interrupt)?<code 339> (__OC4Interrupt):<code 339> (__DefaultInterrupt)
                  0x00004a          0x4 LONG 0x168dc DEFINED (__T4Interrupt)?<code 339> (__T4Interrupt):<code 339> (__DefaultInterrupt)
                  0x00004c          0x4 LONG 0x17320 DEFINED (__T5Interrupt)?<code 339> (__T5Interrupt):<code 339> (__DefaultInterrupt)
                  0x00004e          0x4 LONG 0x169ae DEFINED (__INT2Interrupt)?<code 339> (__INT2Interrupt):<code 339> (__DefaultInterrupt)
                  0x000050          0x4 LONG 0x1687c DEFINED (__U2RXInterrupt)?<code 339> (__U2RXInterrupt):<code 339> (__DefaultInterrupt)
                  0x000052          0x4 LONG 0x168dc DEFINED (__U2TXInterrupt)?<code 339> (__U2TXInterrupt):<code 339> (__DefaultInterrupt)
                  0x000054          0x4 LONG 0x168dc DEFINED (__SPI2ErrInterrupt)?<code 339> (__SPI2ErrInterrupt):<code 339> (__DefaultInterrupt)
                  0x000056          0x4 LONG 0x168dc DEFINED (__SPI2Interrupt)?<code 339> (__SPI2Interrupt):<code 339> (__DefaultInterrupt)
                  0x000058          0x4 LONG 0x168dc DEFINED (__Interrupt34)?<code 339> (__Interrupt34):<code 339> (__DefaultInterrupt)
                  0x00005a          0x4 LONG 0x168dc DEFINED (__Interrupt35)?<code 339> (__Interrupt35):<code 339> (__DefaultInterrupt)
                  0x00005c          0x4 LONG 0x168dc DEFINED (__Interrupt36)?<code 339> (__Interrupt36):<code 339> (__DefaultInterrupt)
                  0x00005e          0x4 LONG 0x131d2 DEFINED (__IC3Interrupt)?<code 339> (__IC3Interrupt):<code 339> (__DefaultInterrupt)
                  0x000060          0x4 LONG 0x131fa DEFINED (__IC4Interrupt)?<code 339> (__IC4Interrupt):<code 339> (__DefaultInterrupt)
                  0x000062          0x4 LONG 0x13214 DEFINED (__IC5Interrupt)?<code 339> (__IC5Interrupt):<code 339> (__DefaultInterrupt)
                  0x000064          0x4 LONG 0x1323c DEFINED (__IC6Interrupt)?<code 339> (__IC6Interrupt):<code 339> (__DefaultInterrupt)
                  0x000066          0x4 LONG 0x168dc DEFINED (__OC5Interrupt)?<code 339> (__OC5Interrupt):<code 339> (__DefaultInterrupt)
                  0x000068          0x4 LONG 0x168dc DEFINED (__OC6Interrupt)?<code 339> (__OC6Interrupt):<code 339> (__DefaultInterrupt)
                  0x00006a          0x4 LONG 0x168dc DEFINED (__OC7Interrupt)?<code 339> (__OC7Interrupt):<code 339> (__DefaultInterrupt)
                  0x00006c          0x4 LONG 0x168dc DEFINED (__OC8Interrupt)?<code 339> (__OC8Interrupt):<code 339> (__DefaultInterrupt)
                  0x00006e          0x4 LONG 0x168dc DEFINED (__PMPInterrupt)?<code 339> (__PMPInterrupt):<code 339> (__DefaultInterrupt)
                  0x000070          0x4 LONG 0x168dc DEFINED (__Interrupt46)?<code 339> (__Interrupt46):<code 339> (__DefaultInterrupt)
                  0x000072          0x4 LONG 0x168dc DEFINED (__Interrupt47)?<code 339> (__Interrupt47):<code 339> (__DefaultInterrupt)
                  0x000074          0x4 LONG 0x168dc DEFINED (__Interrupt48)?<code 339> (__Interrupt48):<code 339> (__DefaultInterrupt)
                  0x000076          0x4 LONG 0x168dc DEFINED (__SI2C2Interrupt)?<code 339> (__SI2C2Interrupt):<code 339> (__DefaultInterrupt)
                  0x000078          0x4 LONG 0x168dc DEFINED (__MI2C2Interrupt)?<code 339> (__MI2C2Interrupt):<code 339> (__DefaultInterrupt)
                  0x00007a          0x4 LONG 0x168dc DEFINED (__Interrupt51)?<code 339> (__Interrupt51):<code 339> (__DefaultInterrupt)
                  0x00007c          0x4 LONG 0x168dc DEFINED (__Interrupt52)?<code 339> (__Interrupt52):<code 339> (__DefaultInterrupt)
                  0x00007e          0x4 LONG 0x169d6 DEFINED (__INT3Interrupt)?<code 339> (__INT3Interrupt):<code 339> (__DefaultInterrupt)
                  0x000080          0x4 LONG 0x169fe DEFINED (__INT4Interrupt)?<code 339> (__INT4Interrupt):<code 339> (__DefaultInterrupt)
                  0x000082          0x4 LONG 0x168dc DEFINED (__Interrupt55)?<code 339> (__Interrupt55):<code 339> (__DefaultInterrupt)
                  0x000084          0x4 LONG 0x168dc DEFINED (__Interrupt56)?<code 339> (__Interrupt56):<code 339> (__DefaultInterrupt)
                  0x000086          0x4 LONG 0x168dc DEFINED (__Interrupt57)?<code 339> (__Interrupt57):<code 339> (__DefaultInterrupt)
                  0x000088          0x4 LONG 0x168dc DEFINED (__Interrupt58)?<code 339> (__Interrupt58):<code 339> (__DefaultInterrupt)
                  0x00008a          0x4 LONG 0x168dc DEFINED (__Interrupt59)?<code 339> (__Interrupt59):<code 339> (__DefaultInterrupt)
                  0x00008c          0x4 LONG 0x168dc DEFINED (__Interrupt60)?<code 339> (__Interrupt60):<code 339> (__DefaultInterrupt)
                  0x00008e          0x4 LONG 0x168dc DEFINED (__Interrupt61)?<code 339> (__Interrupt61):<code 339> (__DefaultInterrupt)
                  0x000090          0x4 LONG 0x168dc DEFINED (__RTCCInterrupt)?<code 339> (__RTCCInterrupt):<code 339> (__DefaultInterrupt)
                  0x000092          0x4 LONG 0x168dc DEFINED (__Interrupt63)?<code 339> (__Interrupt63):<code 339> (__DefaultInterrupt)
                  0x000094          0x4 LONG 0x168dc DEFINED (__Interrupt64)?<code 339> (__Interrupt64):<code 339> (__DefaultInterrupt)
                  0x000096          0x4 LONG 0x168dc DEFINED (__U1ErrInterrupt)?<code 339> (__U1ErrInterrupt):<code 339> (__DefaultInterrupt)
                  0x000098          0x4 LONG 0x168dc DEFINED (__U2ErrInterrupt)?<code 339> (__U2ErrInterrupt):<code 339> (__DefaultInterrupt)
                  0x00009a          0x4 LONG 0x168dc DEFINED (__CRCInterrupt)?<code 339> (__CRCInterrupt):<code 339> (__DefaultInterrupt)
                  0x00009c          0x4 LONG 0x168dc DEFINED (__Interrupt68)?<code 339> (__Interrupt68):<code 339> (__DefaultInterrupt)
                  0x00009e          0x4 LONG 0x168dc DEFINED (__Interrupt69)?<code 339> (__Interrupt69):<code 339> (__DefaultInterrupt)
                  0x0000a0          0x4 LONG 0x168dc DEFINED (__Interrupt70)?<code 339> (__Interrupt70):<code 339> (__DefaultInterrupt)
                  0x0000a2          0x4 LONG 0x168dc DEFINED (__Interrupt71)?<code 339> (__Interrupt71):<code 339> (__DefaultInterrupt)
                  0x0000a4          0x4 LONG 0x168dc DEFINED (__LVDInterrupt)?<code 339> (__LVDInterrupt):<code 339> (__DefaultInterrupt)
                  0x0000a6          0x4 LONG 0x168dc DEFINED (__Interrupt73)?<code 339> (__Interrupt73):<code 339> (__DefaultInterrupt)
                  0x0000a8          0x4 LONG 0x168dc DEFINED (__Interrupt74)?<code 339> (__Interrupt74):<code 339> (__DefaultInterrupt)
                  0x0000aa          0x4 LONG 0x168dc DEFINED (__Interrupt75)?<code 339> (__Interrupt75):<code 339> (__DefaultInterrupt)
                  0x0000ac          0x4 LONG 0x168dc DEFINED (__Interrupt76)?<code 339> (__Interrupt76):<code 339> (__DefaultInterrupt)
                  0x0000ae          0x4 LONG 0x168dc DEFINED (__CTMUInterrupt)?<code 339> (__CTMUInterrupt):<code 339> (__DefaultInterrupt)
                  0x0000b0          0x4 LONG 0x168dc DEFINED (__Interrupt78)?<code 339> (__Interrupt78):<code 339> (__DefaultInterrupt)
                  0x0000b2          0x4 LONG 0x168dc DEFINED (__Interrupt79)?<code 339> (__Interrupt79):<code 339> (__DefaultInterrupt)
                  0x0000b4          0x4 LONG 0x168dc DEFINED (__Interrupt80)?<code 339> (__Interrupt80):<code 339> (__DefaultInterrupt)
                  0x0000b6          0x4 LONG 0x168dc DEFINED (__U3ErrInterrupt)?<code 339> (__U3ErrInterrupt):<code 339> (__DefaultInterrupt)
                  0x0000b8          0x4 LONG 0x1689c DEFINED (__U3RXInterrupt)?<code 339> (__U3RXInterrupt):<code 339> (__DefaultInterrupt)
                  0x0000ba          0x4 LONG 0x168dc DEFINED (__U3TXInterrupt)?<code 339> (__U3TXInterrupt):<code 339> (__DefaultInterrupt)
                  0x0000bc          0x4 LONG 0x168dc DEFINED (__SI2C3Interrupt)?<code 339> (__SI2C3Interrupt):<code 339> (__DefaultInterrupt)
                  0x0000be          0x4 LONG 0x168dc DEFINED (__MI2C3Interrupt)?<code 339> (__MI2C3Interrupt):<code 339> (__DefaultInterrupt)
                  0x0000c0          0x4 LONG 0x168dc DEFINED (__Interrupt86)?<code 339> (__Interrupt86):<code 339> (__DefaultInterrupt)
                  0x0000c2          0x4 LONG 0x168dc DEFINED (__U4ErrInterrupt)?<code 339> (__U4ErrInterrupt):<code 339> (__DefaultInterrupt)
                  0x0000c4          0x4 LONG 0x168bc DEFINED (__U4RXInterrupt)?<code 339> (__U4RXInterrupt):<code 339> (__DefaultInterrupt)
                  0x0000c6          0x4 LONG 0x168dc DEFINED (__U4TXInterrupt)?<code 339> (__U4TXInterrupt):<code 339> (__DefaultInterrupt)
                  0x0000c8          0x4 LONG 0x168dc DEFINED (__SPI3ErrInterrupt)?<code 339> (__SPI3ErrInterrupt):<code 339> (__DefaultInterrupt)
                  0x0000ca          0x4 LONG 0x168dc DEFINED (__SPI3Interrupt)?<code 339> (__SPI3Interrupt):<code 339> (__DefaultInterrupt)
                  0x0000cc          0x4 LONG 0x168dc DEFINED (__OC9Interrupt)?<code 339> (__OC9Interrupt):<code 339> (__DefaultInterrupt)
                  0x0000ce          0x4 LONG 0x168dc DEFINED (__IC9Interrupt)?<code 339> (__IC9Interrupt):<code 339> (__DefaultInterrupt)
                  0x0000d0          0x4 LONG 0x168dc DEFINED (__Interrupt94)?<code 339> (__Interrupt94):<code 339> (__DefaultInterrupt)
                  0x0000d2          0x4 LONG 0x168dc DEFINED (__Interrupt95)?<code 339> (__Interrupt95):<code 339> (__DefaultInterrupt)
                  0x0000d4          0x4 LONG 0x168dc DEFINED (__Interrupt96)?<code 339> (__Interrupt96):<code 339> (__DefaultInterrupt)
                  0x0000d6          0x4 LONG 0x168dc DEFINED (__Interrupt97)?<code 339> (__Interrupt97):<code 339> (__DefaultInterrupt)
                  0x0000d8          0x4 LONG 0x168dc DEFINED (__Interrupt98)?<code 339> (__Interrupt98):<code 339> (__DefaultInterrupt)
                  0x0000da          0x4 LONG 0x168dc DEFINED (__Interrupt99)?<code 339> (__Interrupt99):<code 339> (__DefaultInterrupt)
                  0x0000dc          0x4 LONG 0x168dc DEFINED (__Interrupt100)?<code 339> (__Interrupt100):<code 339> (__DefaultInterrupt)
                  0x0000de          0x4 LONG 0x168dc DEFINED (__Interrupt101)?<code 339> (__Interrupt101):<code 339> (__DefaultInterrupt)
                  0x0000e0          0x4 LONG 0x168dc DEFINED (__Interrupt102)?<code 339> (__Interrupt102):<code 339> (__DefaultInterrupt)
                  0x0000e2          0x4 LONG 0x168dc DEFINED (__Interrupt103)?<code 339> (__Interrupt103):<code 339> (__DefaultInterrupt)
                  0x0000e4          0x4 LONG 0x168dc DEFINED (__Interrupt104)?<code 339> (__Interrupt104):<code 339> (__DefaultInterrupt)
                  0x0000e6          0x4 LONG 0x168dc DEFINED (__Interrupt105)?<code 339> (__Interrupt105):<code 339> (__DefaultInterrupt)
                  0x0000e8          0x4 LONG 0x168dc DEFINED (__Interrupt106)?<code 339> (__Interrupt106):<code 339> (__DefaultInterrupt)
                  0x0000ea          0x4 LONG 0x168dc DEFINED (__Interrupt107)?<code 339> (__Interrupt107):<code 339> (__DefaultInterrupt)
                  0x0000ec          0x4 LONG 0x168dc DEFINED (__Interrupt108)?<code 339> (__Interrupt108):<code 339> (__DefaultInterrupt)
                  0x0000ee          0x4 LONG 0x168dc DEFINED (__Interrupt109)?<code 339> (__Interrupt109):<code 339> (__DefaultInterrupt)
                  0x0000f0          0x4 LONG 0x168dc DEFINED (__Interrupt110)?<code 339> (__Interrupt110):<code 339> (__DefaultInterrupt)
                  0x0000f2          0x4 LONG 0x168dc DEFINED (__Interrupt111)?<code 339> (__Interrupt111):<code 339> (__DefaultInterrupt)
                  0x0000f4          0x4 LONG 0x168dc DEFINED (__Interrupt112)?<code 339> (__Interrupt112):<code 339> (__DefaultInterrupt)
                  0x0000f6          0x4 LONG 0x168dc DEFINED (__Interrupt113)?<code 339> (__Interrupt113):<code 339> (__DefaultInterrupt)
                  0x0000f8          0x4 LONG 0x168dc DEFINED (__Interrupt114)?<code 339> (__Interrupt114):<code 339> (__DefaultInterrupt)
                  0x0000fa          0x4 LONG 0x168dc DEFINED (__Interrupt115)?<code 339> (__Interrupt115):<code 339> (__DefaultInterrupt)
                  0x0000fc          0x4 LONG 0x168dc DEFINED (__Interrupt116)?<code 339> (__Interrupt116):<code 339> (__DefaultInterrupt)
                  0x0000fe          0x4 LONG 0x168dc DEFINED (__Interrupt117)?<code 339> (__Interrupt117):<code 339> (__DefaultInterrupt)

.aivt             0x000104         0xfc
                  0x000104          0x4 LONG 0x168dc DEFINED (__AltReservedTrap0)?<code 339> (__AltReservedTrap0):DEFINED (__ReservedTrap0)?<code 339> (__ReservedTrap0):<code 339> (__DefaultInterrupt)
                  0x000106          0x4 LONG 0x16906 DEFINED (__AltOscillatorFail)?<code 339> (__AltOscillatorFail):DEFINED (__OscillatorFail)?<code 339> (__OscillatorFail):<code 339> (__DefaultInterrupt)
                  0x000108          0x4 LONG 0x16930 DEFINED (__AltAddressError)?<code 339> (__AltAddressError):DEFINED (__AddressError)?<code 339> (__AddressError):<code 339> (__DefaultInterrupt)
                  0x00010a          0x4 LONG 0x1695a DEFINED (__AltStackError)?<code 339> (__AltStackError):DEFINED (__StackError)?<code 339> (__StackError):<code 339> (__DefaultInterrupt)
                  0x00010c          0x4 LONG 0x16984 DEFINED (__AltMathError)?<code 339> (__AltMathError):DEFINED (__MathError)?<code 339> (__MathError):<code 339> (__DefaultInterrupt)
                  0x00010e          0x4 LONG 0x168dc DEFINED (__AltReservedTrap5)?<code 339> (__AltReservedTrap5):DEFINED (__ReservedTrap5)?<code 339> (__ReservedTrap5):<code 339> (__DefaultInterrupt)
                  0x000110          0x4 LONG 0x168dc DEFINED (__AltReservedTrap6)?<code 339> (__AltReservedTrap6):DEFINED (__ReservedTrap6)?<code 339> (__ReservedTrap6):<code 339> (__DefaultInterrupt)
                  0x000112          0x4 LONG 0x168dc DEFINED (__AltReservedTrap7)?<code 339> (__AltReservedTrap7):DEFINED (__ReservedTrap7)?<code 339> (__ReservedTrap7):<code 339> (__DefaultInterrupt)
                  0x000114          0x4 LONG 0x168dc DEFINED (__AltINT0Interrupt)?<code 339> (__AltINT0Interrupt):DEFINED (__INT0Interrupt)?<code 339> (__INT0Interrupt):<code 339> (__DefaultInterrupt)
                  0x000116          0x4 LONG 0x1317e DEFINED (__AltIC1Interrupt)?<code 339> (__AltIC1Interrupt):DEFINED (__IC1Interrupt)?<code 339> (__IC1Interrupt):<code 339> (__DefaultInterrupt)
                  0x000118          0x4 LONG 0x168dc DEFINED (__AltOC1Interrupt)?<code 339> (__AltOC1Interrupt):DEFINED (__OC1Interrupt)?<code 339> (__OC1Interrupt):<code 339> (__DefaultInterrupt)
                  0x00011a          0x4 LONG 0x175a4 DEFINED (__AltT1Interrupt)?<code 339> (__AltT1Interrupt):DEFINED (__T1Interrupt)?<code 339> (__T1Interrupt):<code 339> (__DefaultInterrupt)
                  0x00011c          0x4 LONG 0x168dc DEFINED (__AltInterrupt4)?<code 339> (__AltInterrupt4):DEFINED (__Interrupt4)?<code 339> (__Interrupt4):<code 339> (__DefaultInterrupt)
                  0x00011e          0x4 LONG 0x131b8 DEFINED (__AltIC2Interrupt)?<code 339> (__AltIC2Interrupt):DEFINED (__IC2Interrupt)?<code 339> (__IC2Interrupt):<code 339> (__DefaultInterrupt)
                  0x000120          0x4 LONG 0x168dc DEFINED (__AltOC2Interrupt)?<code 339> (__AltOC2Interrupt):DEFINED (__OC2Interrupt)?<code 339> (__OC2Interrupt):<code 339> (__DefaultInterrupt)
                  0x000122          0x4 LONG 0x168dc DEFINED (__AltT2Interrupt)?<code 339> (__AltT2Interrupt):DEFINED (__T2Interrupt)?<code 339> (__T2Interrupt):<code 339> (__DefaultInterrupt)
                  0x000124          0x4 LONG 0x168dc DEFINED (__AltT3Interrupt)?<code 339> (__AltT3Interrupt):DEFINED (__T3Interrupt)?<code 339> (__T3Interrupt):<code 339> (__DefaultInterrupt)
                  0x000126          0x4 LONG 0x168dc DEFINED (__AltSPI1ErrInterrupt)?<code 339> (__AltSPI1ErrInterrupt):DEFINED (__SPI1ErrInterrupt)?<code 339> (__SPI1ErrInterrupt):<code 339> (__DefaultInterrupt)
                  0x000128          0x4 LONG 0x168dc DEFINED (__AltSPI1Interrupt)?<code 339> (__AltSPI1Interrupt):DEFINED (__SPI1Interrupt)?<code 339> (__SPI1Interrupt):<code 339> (__DefaultInterrupt)
                  0x00012a          0x4 LONG 0x1685c DEFINED (__AltU1RXInterrupt)?<code 339> (__AltU1RXInterrupt):DEFINED (__U1RXInterrupt)?<code 339> (__U1RXInterrupt):<code 339> (__DefaultInterrupt)
                  0x00012c          0x4 LONG 0x168dc DEFINED (__AltU1TXInterrupt)?<code 339> (__AltU1TXInterrupt):DEFINED (__U1TXInterrupt)?<code 339> (__U1TXInterrupt):<code 339> (__DefaultInterrupt)
                  0x00012e          0x4 LONG 0x669c DEFINED (__AltADC1Interrupt)?<code 339> (__AltADC1Interrupt):DEFINED (__ADC1Interrupt)?<code 339> (__ADC1Interrupt):<code 339> (__DefaultInterrupt)
                  0x000130          0x4 LONG 0x168dc DEFINED (__AltInterrupt14)?<code 339> (__AltInterrupt14):DEFINED (__Interrupt14)?<code 339> (__Interrupt14):<code 339> (__DefaultInterrupt)
                  0x000132          0x4 LONG 0x168dc DEFINED (__AltInterrupt15)?<code 339> (__AltInterrupt15):DEFINED (__Interrupt15)?<code 339> (__Interrupt15):<code 339> (__DefaultInterrupt)
                  0x000134          0x4 LONG 0x168dc DEFINED (__AltSI2C1Interrupt)?<code 339> (__AltSI2C1Interrupt):DEFINED (__SI2C1Interrupt)?<code 339> (__SI2C1Interrupt):<code 339> (__DefaultInterrupt)
                  0x000136          0x4 LONG 0x168dc DEFINED (__AltMI2C1Interrupt)?<code 339> (__AltMI2C1Interrupt):DEFINED (__MI2C1Interrupt)?<code 339> (__MI2C1Interrupt):<code 339> (__DefaultInterrupt)
                  0x000138          0x4 LONG 0x168dc DEFINED (__AltCompInterrupt)?<code 339> (__AltCompInterrupt):DEFINED (__CompInterrupt)?<code 339> (__CompInterrupt):<code 339> (__DefaultInterrupt)
                  0x00013a          0x4 LONG 0x168dc DEFINED (__AltCNInterrupt)?<code 339> (__AltCNInterrupt):DEFINED (__CNInterrupt)?<code 339> (__CNInterrupt):<code 339> (__DefaultInterrupt)
                  0x00013c          0x4 LONG 0x17f78 DEFINED (__AltINT1Interrupt)?<code 339> (__AltINT1Interrupt):DEFINED (__INT1Interrupt)?<code 339> (__INT1Interrupt):<code 339> (__DefaultInterrupt)
                  0x00013e          0x4 LONG 0x168dc DEFINED (__AltInterrupt21)?<code 339> (__AltInterrupt21):DEFINED (__Interrupt21)?<code 339> (__Interrupt21):<code 339> (__DefaultInterrupt)
                  0x000140          0x4 LONG 0x168dc DEFINED (__AltIC7Interrupt)?<code 339> (__AltIC7Interrupt):DEFINED (__IC7Interrupt)?<code 339> (__IC7Interrupt):<code 339> (__DefaultInterrupt)
                  0x000142          0x4 LONG 0x168dc DEFINED (__AltIC8Interrupt)?<code 339> (__AltIC8Interrupt):DEFINED (__IC8Interrupt)?<code 339> (__IC8Interrupt):<code 339> (__DefaultInterrupt)
                  0x000144          0x4 LONG 0x168dc DEFINED (__AltInterrupt24)?<code 339> (__AltInterrupt24):DEFINED (__Interrupt24)?<code 339> (__Interrupt24):<code 339> (__DefaultInterrupt)
                  0x000146          0x4 LONG 0x168dc DEFINED (__AltOC3Interrupt)?<code 339> (__AltOC3Interrupt):DEFINED (__OC3Interrupt)?<code 339> (__OC3Interrupt):<code 339> (__DefaultInterrupt)
                  0x000148          0x4 LONG 0x168dc DEFINED (__AltOC4Interrupt)?<code 339> (__AltOC4Interrupt):DEFINED (__OC4Interrupt)?<code 339> (__OC4Interrupt):<code 339> (__DefaultInterrupt)
                  0x00014a          0x4 LONG 0x168dc DEFINED (__AltT4Interrupt)?<code 339> (__AltT4Interrupt):DEFINED (__T4Interrupt)?<code 339> (__T4Interrupt):<code 339> (__DefaultInterrupt)
                  0x00014c          0x4 LONG 0x17320 DEFINED (__AltT5Interrupt)?<code 339> (__AltT5Interrupt):DEFINED (__T5Interrupt)?<code 339> (__T5Interrupt):<code 339> (__DefaultInterrupt)
                  0x00014e          0x4 LONG 0x169ae DEFINED (__AltINT2Interrupt)?<code 339> (__AltINT2Interrupt):DEFINED (__INT2Interrupt)?<code 339> (__INT2Interrupt):<code 339> (__DefaultInterrupt)
                  0x000150          0x4 LONG 0x1687c DEFINED (__AltU2RXInterrupt)?<code 339> (__AltU2RXInterrupt):DEFINED (__U2RXInterrupt)?<code 339> (__U2RXInterrupt):<code 339> (__DefaultInterrupt)
                  0x000152          0x4 LONG 0x168dc DEFINED (__AltU2TXInterrupt)?<code 339> (__AltU2TXInterrupt):DEFINED (__U2TXInterrupt)?<code 339> (__U2TXInterrupt):<code 339> (__DefaultInterrupt)
                  0x000154          0x4 LONG 0x168dc DEFINED (__AltSPI2ErrInterrupt)?<code 339> (__AltSPI2ErrInterrupt):DEFINED (__SPI2ErrInterrupt)?<code 339> (__SPI2ErrInterrupt):<code 339> (__DefaultInterrupt)
                  0x000156          0x4 LONG 0x168dc DEFINED (__AltSPI2Interrupt)?<code 339> (__AltSPI2Interrupt):DEFINED (__SPI2Interrupt)?<code 339> (__SPI2Interrupt):<code 339> (__DefaultInterrupt)
                  0x000158          0x4 LONG 0x168dc DEFINED (__AltInterrupt34)?<code 339> (__AltInterrupt34):DEFINED (__Interrupt34)?<code 339> (__Interrupt34):<code 339> (__DefaultInterrupt)
                  0x00015a          0x4 LONG 0x168dc DEFINED (__AltInterrupt35)?<code 339> (__AltInterrupt35):DEFINED (__Interrupt35)?<code 339> (__Interrupt35):<code 339> (__DefaultInterrupt)
                  0x00015c          0x4 LONG 0x168dc DEFINED (__AltInterrupt36)?<code 339> (__AltInterrupt36):DEFINED (__Interrupt36)?<code 339> (__Interrupt36):<code 339> (__DefaultInterrupt)
                  0x00015e          0x4 LONG 0x131d2 DEFINED (__AltIC3Interrupt)?<code 339> (__AltIC3Interrupt):DEFINED (__IC3Interrupt)?<code 339> (__IC3Interrupt):<code 339> (__DefaultInterrupt)
                  0x000160          0x4 LONG 0x131fa DEFINED (__AltIC4Interrupt)?<code 339> (__AltIC4Interrupt):DEFINED (__IC4Interrupt)?<code 339> (__IC4Interrupt):<code 339> (__DefaultInterrupt)
                  0x000162          0x4 LONG 0x13214 DEFINED (__AltIC5Interrupt)?<code 339> (__AltIC5Interrupt):DEFINED (__IC5Interrupt)?<code 339> (__IC5Interrupt):<code 339> (__DefaultInterrupt)
                  0x000164          0x4 LONG 0x1323c DEFINED (__AltIC6Interrupt)?<code 339> (__AltIC6Interrupt):DEFINED (__IC6Interrupt)?<code 339> (__IC6Interrupt):<code 339> (__DefaultInterrupt)
                  0x000166          0x4 LONG 0x168dc DEFINED (__AltOC5Interrupt)?<code 339> (__AltOC5Interrupt):DEFINED (__OC5Interrupt)?<code 339> (__OC5Interrupt):<code 339> (__DefaultInterrupt)
                  0x000168          0x4 LONG 0x168dc DEFINED (__AltOC6Interrupt)?<code 339> (__AltOC6Interrupt):DEFINED (__OC6Interrupt)?<code 339> (__OC6Interrupt):<code 339> (__DefaultInterrupt)
                  0x00016a          0x4 LONG 0x168dc DEFINED (__AltOC7Interrupt)?<code 339> (__AltOC7Interrupt):DEFINED (__OC7Interrupt)?<code 339> (__OC7Interrupt):<code 339> (__DefaultInterrupt)
                  0x00016c          0x4 LONG 0x168dc DEFINED (__AltOC8Interrupt)?<code 339> (__AltOC8Interrupt):DEFINED (__OC8Interrupt)?<code 339> (__OC8Interrupt):<code 339> (__DefaultInterrupt)
                  0x00016e          0x4 LONG 0x168dc DEFINED (__AltPMPInterrupt)?<code 339> (__AltPMPInterrupt):DEFINED (__PMPInterrupt)?<code 339> (__PMPInterrupt):<code 339> (__DefaultInterrupt)
                  0x000170          0x4 LONG 0x168dc DEFINED (__AltInterrupt46)?<code 339> (__AltInterrupt46):DEFINED (__Interrupt46)?<code 339> (__Interrupt46):<code 339> (__DefaultInterrupt)
                  0x000172          0x4 LONG 0x168dc DEFINED (__AltInterrupt47)?<code 339> (__AltInterrupt47):DEFINED (__Interrupt47)?<code 339> (__Interrupt47):<code 339> (__DefaultInterrupt)
                  0x000174          0x4 LONG 0x168dc DEFINED (__AltInterrupt48)?<code 339> (__AltInterrupt48):DEFINED (__Interrupt48)?<code 339> (__Interrupt48):<code 339> (__DefaultInterrupt)
                  0x000176          0x4 LONG 0x168dc DEFINED (__AltSI2C2Interrupt)?<code 339> (__AltSI2C2Interrupt):DEFINED (__SI2C2Interrupt)?<code 339> (__SI2C2Interrupt):<code 339> (__DefaultInterrupt)
                  0x000178          0x4 LONG 0x168dc DEFINED (__AltMI2C2Interrupt)?<code 339> (__AltMI2C2Interrupt):DEFINED (__MI2C2Interrupt)?<code 339> (__MI2C2Interrupt):<code 339> (__DefaultInterrupt)
                  0x00017a          0x4 LONG 0x168dc DEFINED (__AltInterrupt51)?<code 339> (__AltInterrupt51):DEFINED (__Interrupt51)?<code 339> (__Interrupt51):<code 339> (__DefaultInterrupt)
                  0x00017c          0x4 LONG 0x168dc DEFINED (__AltInterrupt52)?<code 339> (__AltInterrupt52):DEFINED (__Interrupt52)?<code 339> (__Interrupt52):<code 339> (__DefaultInterrupt)
                  0x00017e          0x4 LONG 0x169d6 DEFINED (__AltINT3Interrupt)?<code 339> (__AltINT3Interrupt):DEFINED (__INT3Interrupt)?<code 339> (__INT3Interrupt):<code 339> (__DefaultInterrupt)
                  0x000180          0x4 LONG 0x169fe DEFINED (__AltINT4Interrupt)?<code 339> (__AltINT4Interrupt):DEFINED (__INT4Interrupt)?<code 339> (__INT4Interrupt):<code 339> (__DefaultInterrupt)
                  0x000182          0x4 LONG 0x168dc DEFINED (__AltInterrupt55)?<code 339> (__AltInterrupt55):DEFINED (__Interrupt55)?<code 339> (__Interrupt55):<code 339> (__DefaultInterrupt)
                  0x000184          0x4 LONG 0x168dc DEFINED (__AltInterrupt56)?<code 339> (__AltInterrupt56):DEFINED (__Interrupt56)?<code 339> (__Interrupt56):<code 339> (__DefaultInterrupt)
                  0x000186          0x4 LONG 0x168dc DEFINED (__AltInterrupt57)?<code 339> (__AltInterrupt57):DEFINED (__Interrupt57)?<code 339> (__Interrupt57):<code 339> (__DefaultInterrupt)
                  0x000188          0x4 LONG 0x168dc DEFINED (__AltInterrupt58)?<code 339> (__AltInterrupt58):DEFINED (__Interrupt58)?<code 339> (__Interrupt58):<code 339> (__DefaultInterrupt)
                  0x00018a          0x4 LONG 0x168dc DEFINED (__AltInterrupt59)?<code 339> (__AltInterrupt59):DEFINED (__Interrupt59)?<code 339> (__Interrupt59):<code 339> (__DefaultInterrupt)
                  0x00018c          0x4 LONG 0x168dc DEFINED (__AltInterrupt60)?<code 339> (__AltInterrupt60):DEFINED (__Interrupt60)?<code 339> (__Interrupt60):<code 339> (__DefaultInterrupt)
                  0x00018e          0x4 LONG 0x168dc DEFINED (__AltInterrupt61)?<code 339> (__AltInterrupt61):DEFINED (__Interrupt61)?<code 339> (__Interrupt61):<code 339> (__DefaultInterrupt)
                  0x000190          0x4 LONG 0x168dc DEFINED (__AltRTCCInterrupt)?<code 339> (__AltRTCCInterrupt):DEFINED (__RTCCInterrupt)?<code 339> (__RTCCInterrupt):<code 339> (__DefaultInterrupt)
                  0x000192          0x4 LONG 0x168dc DEFINED (__AltInterrupt63)?<code 339> (__AltInterrupt63):DEFINED (__Interrupt63)?<code 339> (__Interrupt63):<code 339> (__DefaultInterrupt)
                  0x000194          0x4 LONG 0x168dc DEFINED (__AltInterrupt64)?<code 339> (__AltInterrupt64):DEFINED (__Interrupt64)?<code 339> (__Interrupt64):<code 339> (__DefaultInterrupt)
                  0x000196          0x4 LONG 0x168dc DEFINED (__AltU1ErrInterrupt)?<code 339> (__AltU1ErrInterrupt):DEFINED (__U1ErrInterrupt)?<code 339> (__U1ErrInterrupt):<code 339> (__DefaultInterrupt)
                  0x000198          0x4 LONG 0x168dc DEFINED (__AltU2ErrInterrupt)?<code 339> (__AltU2ErrInterrupt):DEFINED (__U2ErrInterrupt)?<code 339> (__U2ErrInterrupt):<code 339> (__DefaultInterrupt)
                  0x00019a          0x4 LONG 0x168dc DEFINED (__AltCRCInterrupt)?<code 339> (__AltCRCInterrupt):DEFINED (__CRCInterrupt)?<code 339> (__CRCInterrupt):<code 339> (__DefaultInterrupt)
                  0x00019c          0x4 LONG 0x168dc DEFINED (__AltInterrupt68)?<code 339> (__AltInterrupt68):DEFINED (__Interrupt68)?<code 339> (__Interrupt68):<code 339> (__DefaultInterrupt)
                  0x00019e          0x4 LONG 0x168dc DEFINED (__AltInterrupt69)?<code 339> (__AltInterrupt69):DEFINED (__Interrupt69)?<code 339> (__Interrupt69):<code 339> (__DefaultInterrupt)
                  0x0001a0          0x4 LONG 0x168dc DEFINED (__AltInterrupt70)?<code 339> (__AltInterrupt70):DEFINED (__Interrupt70)?<code 339> (__Interrupt70):<code 339> (__DefaultInterrupt)
                  0x0001a2          0x4 LONG 0x168dc DEFINED (__AltInterrupt71)?<code 339> (__AltInterrupt71):DEFINED (__Interrupt71)?<code 339> (__Interrupt71):<code 339> (__DefaultInterrupt)
                  0x0001a4          0x4 LONG 0x168dc DEFINED (__AltLVDInterrupt)?<code 339> (__AltLVDInterrupt):DEFINED (__LVDInterrupt)?<code 339> (__LVDInterrupt):<code 339> (__DefaultInterrupt)
                  0x0001a6          0x4 LONG 0x168dc DEFINED (__AltInterrupt73)?<code 339> (__AltInterrupt73):DEFINED (__Interrupt73)?<code 339> (__Interrupt73):<code 339> (__DefaultInterrupt)
                  0x0001a8          0x4 LONG 0x168dc DEFINED (__AltInterrupt74)?<code 339> (__AltInterrupt74):DEFINED (__Interrupt74)?<code 339> (__Interrupt74):<code 339> (__DefaultInterrupt)
                  0x0001aa          0x4 LONG 0x168dc DEFINED (__AltInterrupt75)?<code 339> (__AltInterrupt75):DEFINED (__Interrupt75)?<code 339> (__Interrupt75):<code 339> (__DefaultInterrupt)
                  0x0001ac          0x4 LONG 0x168dc DEFINED (__AltInterrupt76)?<code 339> (__AltInterrupt76):DEFINED (__Interrupt76)?<code 339> (__Interrupt76):<code 339> (__DefaultInterrupt)
                  0x0001ae          0x4 LONG 0x168dc DEFINED (__AltCTMUInterrupt)?<code 339> (__AltCTMUInterrupt):DEFINED (__CTMUInterrupt)?<code 339> (__CTMUInterrupt):<code 339> (__DefaultInterrupt)
                  0x0001b0          0x4 LONG 0x168dc DEFINED (__AltInterrupt78)?<code 339> (__AltInterrupt78):DEFINED (__Interrupt78)?<code 339> (__Interrupt78):<code 339> (__DefaultInterrupt)
                  0x0001b2          0x4 LONG 0x168dc DEFINED (__AltInterrupt79)?<code 339> (__AltInterrupt79):DEFINED (__Interrupt79)?<code 339> (__Interrupt79):<code 339> (__DefaultInterrupt)
                  0x0001b4          0x4 LONG 0x168dc DEFINED (__AltInterrupt80)?<code 339> (__AltInterrupt80):DEFINED (__Interrupt80)?<code 339> (__Interrupt80):<code 339> (__DefaultInterrupt)
                  0x0001b6          0x4 LONG 0x168dc DEFINED (__AltU3ErrInterrupt)?<code 339> (__AltU3ErrInterrupt):DEFINED (__U3ErrInterrupt)?<code 339> (__U3ErrInterrupt):<code 339> (__DefaultInterrupt)
                  0x0001b8          0x4 LONG 0x1689c DEFINED (__AltU3RXInterrupt)?<code 339> (__AltU3RXInterrupt):DEFINED (__U3RXInterrupt)?<code 339> (__U3RXInterrupt):<code 339> (__DefaultInterrupt)
                  0x0001ba          0x4 LONG 0x168dc DEFINED (__AltU3TXInterrupt)?<code 339> (__AltU3TXInterrupt):DEFINED (__U3TXInterrupt)?<code 339> (__U3TXInterrupt):<code 339> (__DefaultInterrupt)
                  0x0001bc          0x4 LONG 0x168dc DEFINED (__AltSI2C3Interrupt)?<code 339> (__AltSI2C3Interrupt):DEFINED (__SI2C3Interrupt)?<code 339> (__SI2C3Interrupt):<code 339> (__DefaultInterrupt)
                  0x0001be          0x4 LONG 0x168dc DEFINED (__AltMI2C3Interrupt)?<code 339> (__AltMI2C3Interrupt):DEFINED (__MI2C3Interrupt)?<code 339> (__MI2C3Interrupt):<code 339> (__DefaultInterrupt)
                  0x0001c0          0x4 LONG 0x168dc DEFINED (__AltInterrupt86)?<code 339> (__AltInterrupt86):DEFINED (__Interrupt86)?<code 339> (__Interrupt86):<code 339> (__DefaultInterrupt)
                  0x0001c2          0x4 LONG 0x168dc DEFINED (__AltU4ErrInterrupt)?<code 339> (__AltU4ErrInterrupt):DEFINED (__U4ErrInterrupt)?<code 339> (__U4ErrInterrupt):<code 339> (__DefaultInterrupt)
                  0x0001c4          0x4 LONG 0x168bc DEFINED (__AltU4RXInterrupt)?<code 339> (__AltU4RXInterrupt):DEFINED (__U4RXInterrupt)?<code 339> (__U4RXInterrupt):<code 339> (__DefaultInterrupt)
                  0x0001c6          0x4 LONG 0x168dc DEFINED (__AltU4TXInterrupt)?<code 339> (__AltU4TXInterrupt):DEFINED (__U4TXInterrupt)?<code 339> (__U4TXInterrupt):<code 339> (__DefaultInterrupt)
                  0x0001c8          0x4 LONG 0x168dc DEFINED (__AltSPI3ErrInterrupt)?<code 339> (__AltSPI3ErrInterrupt):DEFINED (__SPI3ErrInterrupt)?<code 339> (__SPI3ErrInterrupt):<code 339> (__DefaultInterrupt)
                  0x0001ca          0x4 LONG 0x168dc DEFINED (__AltSPI3Interrupt)?<code 339> (__AltSPI3Interrupt):DEFINED (__SPI3Interrupt)?<code 339> (__SPI3Interrupt):<code 339> (__DefaultInterrupt)
                  0x0001cc          0x4 LONG 0x168dc DEFINED (__AltOC9Interrupt)?<code 339> (__AltOC9Interrupt):DEFINED (__OC9Interrupt)?<code 339> (__OC9Interrupt):<code 339> (__DefaultInterrupt)
                  0x0001ce          0x4 LONG 0x168dc DEFINED (__AltIC9Interrupt)?<code 339> (__AltIC9Interrupt):DEFINED (__IC9Interrupt)?<code 339> (__IC9Interrupt):<code 339> (__DefaultInterrupt)
                  0x0001d0          0x4 LONG 0x168dc DEFINED (__AltInterrupt94)?<code 339> (__AltInterrupt94):DEFINED (__Interrupt94)?<code 339> (__Interrupt94):<code 339> (__DefaultInterrupt)
                  0x0001d2          0x4 LONG 0x168dc DEFINED (__AltInterrupt95)?<code 339> (__AltInterrupt95):DEFINED (__Interrupt95)?<code 339> (__Interrupt95):<code 339> (__DefaultInterrupt)
                  0x0001d4          0x4 LONG 0x168dc DEFINED (__AltInterrupt96)?<code 339> (__AltInterrupt96):DEFINED (__Interrupt96)?<code 339> (__Interrupt96):<code 339> (__DefaultInterrupt)
                  0x0001d6          0x4 LONG 0x168dc DEFINED (__AltInterrupt97)?<code 339> (__AltInterrupt97):DEFINED (__Interrupt97)?<code 339> (__Interrupt97):<code 339> (__DefaultInterrupt)
                  0x0001d8          0x4 LONG 0x168dc DEFINED (__AltInterrupt98)?<code 339> (__AltInterrupt98):DEFINED (__Interrupt98)?<code 339> (__Interrupt98):<code 339> (__DefaultInterrupt)
                  0x0001da          0x4 LONG 0x168dc DEFINED (__AltInterrupt99)?<code 339> (__AltInterrupt99):DEFINED (__Interrupt99)?<code 339> (__Interrupt99):<code 339> (__DefaultInterrupt)
                  0x0001dc          0x4 LONG 0x168dc DEFINED (__AltInterrupt100)?<code 339> (__AltInterrupt100):DEFINED (__Interrupt100)?<code 339> (__Interrupt100):<code 339> (__DefaultInterrupt)
                  0x0001de          0x4 LONG 0x168dc DEFINED (__AltInterrupt101)?<code 339> (__AltInterrupt101):DEFINED (__Interrupt101)?<code 339> (__Interrupt101):<code 339> (__DefaultInterrupt)
                  0x0001e0          0x4 LONG 0x168dc DEFINED (__AltInterrupt102)?<code 339> (__AltInterrupt102):DEFINED (__Interrupt102)?<code 339> (__Interrupt102):<code 339> (__DefaultInterrupt)
                  0x0001e2          0x4 LONG 0x168dc DEFINED (__AltInterrupt103)?<code 339> (__AltInterrupt103):DEFINED (__Interrupt103)?<code 339> (__Interrupt103):<code 339> (__DefaultInterrupt)
                  0x0001e4          0x4 LONG 0x168dc DEFINED (__AltInterrupt104)?<code 339> (__AltInterrupt104):DEFINED (__Interrupt104)?<code 339> (__Interrupt104):<code 339> (__DefaultInterrupt)
                  0x0001e6          0x4 LONG 0x168dc DEFINED (__AltInterrupt105)?<code 339> (__AltInterrupt105):DEFINED (__Interrupt105)?<code 339> (__Interrupt105):<code 339> (__DefaultInterrupt)
                  0x0001e8          0x4 LONG 0x168dc DEFINED (__AltInterrupt106)?<code 339> (__AltInterrupt106):DEFINED (__Interrupt106)?<code 339> (__Interrupt106):<code 339> (__DefaultInterrupt)
                  0x0001ea          0x4 LONG 0x168dc DEFINED (__AltInterrupt107)?<code 339> (__AltInterrupt107):DEFINED (__Interrupt107)?<code 339> (__Interrupt107):<code 339> (__DefaultInterrupt)
                  0x0001ec          0x4 LONG 0x168dc DEFINED (__AltInterrupt108)?<code 339> (__AltInterrupt108):DEFINED (__Interrupt108)?<code 339> (__Interrupt108):<code 339> (__DefaultInterrupt)
                  0x0001ee          0x4 LONG 0x168dc DEFINED (__AltInterrupt109)?<code 339> (__AltInterrupt109):DEFINED (__Interrupt109)?<code 339> (__Interrupt109):<code 339> (__DefaultInterrupt)
                  0x0001f0          0x4 LONG 0x168dc DEFINED (__AltInterrupt110)?<code 339> (__AltInterrupt110):DEFINED (__Interrupt110)?<code 339> (__Interrupt110):<code 339> (__DefaultInterrupt)
                  0x0001f2          0x4 LONG 0x168dc DEFINED (__AltInterrupt111)?<code 339> (__AltInterrupt111):DEFINED (__Interrupt111)?<code 339> (__Interrupt111):<code 339> (__DefaultInterrupt)
                  0x0001f4          0x4 LONG 0x168dc DEFINED (__AltInterrupt112)?<code 339> (__AltInterrupt112):DEFINED (__Interrupt112)?<code 339> (__Interrupt112):<code 339> (__DefaultInterrupt)
                  0x0001f6          0x4 LONG 0x168dc DEFINED (__AltInterrupt113)?<code 339> (__AltInterrupt113):DEFINED (__Interrupt113)?<code 339> (__Interrupt113):<code 339> (__DefaultInterrupt)
                  0x0001f8          0x4 LONG 0x168dc DEFINED (__AltInterrupt114)?<code 339> (__AltInterrupt114):DEFINED (__Interrupt114)?<code 339> (__Interrupt114):<code 339> (__DefaultInterrupt)
                  0x0001fa          0x4 LONG 0x168dc DEFINED (__AltInterrupt115)?<code 339> (__AltInterrupt115):DEFINED (__Interrupt115)?<code 339> (__Interrupt115):<code 339> (__DefaultInterrupt)
                  0x0001fc          0x4 LONG 0x168dc DEFINED (__AltInterrupt116)?<code 339> (__AltInterrupt116):DEFINED (__Interrupt116)?<code 339> (__Interrupt116):<code 339> (__DefaultInterrupt)
                  0x0001fe          0x4 LONG 0x168dc DEFINED (__AltInterrupt117)?<code 339> (__AltInterrupt117):DEFINED (__Interrupt117)?<code 339> (__Interrupt117):<code 339> (__DefaultInterrupt)
                    0x0000                  WREG0 = 0x0
                    0x0000                  _WREG0 = 0x0
                    0x0002                  WREG1 = 0x2
                    0x0002                  _WREG1 = 0x2
                    0x0004                  WREG2 = 0x4
                    0x0004                  _WREG2 = 0x4
                    0x0006                  WREG3 = 0x6
                    0x0006                  _WREG3 = 0x6
                    0x0008                  WREG4 = 0x8
                    0x0008                  _WREG4 = 0x8
                    0x000a                  WREG5 = 0xa
                    0x000a                  _WREG5 = 0xa
                    0x000c                  WREG6 = 0xc
                    0x000c                  _WREG6 = 0xc
                    0x000e                  WREG7 = 0xe
                    0x000e                  _WREG7 = 0xe
                    0x0010                  WREG8 = 0x10
                    0x0010                  _WREG8 = 0x10
                    0x0012                  WREG9 = 0x12
                    0x0012                  _WREG9 = 0x12
                    0x0014                  WREG10 = 0x14
                    0x0014                  _WREG10 = 0x14
                    0x0016                  WREG11 = 0x16
                    0x0016                  _WREG11 = 0x16
                    0x0018                  WREG12 = 0x18
                    0x0018                  _WREG12 = 0x18
                    0x001a                  WREG13 = 0x1a
                    0x001a                  _WREG13 = 0x1a
                    0x001c                  WREG14 = 0x1c
                    0x001c                  _WREG14 = 0x1c
                    0x001e                  WREG15 = 0x1e
                    0x001e                  _WREG15 = 0x1e
                    0x0020                  SPLIM = 0x20
                    0x0020                  _SPLIM = 0x20
                    0x002e                  PCL = 0x2e
                    0x002e                  _PCL = 0x2e
                    0x0030                  PCH = 0x30
                    0x0030                  _PCH = 0x30
                    0x0032                  TBLPAG = 0x32
                    0x0032                  _TBLPAG = 0x32
                    0x0034                  PSVPAG = 0x34
                    0x0034                  _PSVPAG = 0x34
                    0x0036                  RCOUNT = 0x36
                    0x0036                  _RCOUNT = 0x36
                    0x0042                  SR = 0x42
                    0x0042                  _SR = 0x42
                    0x0042                  _SRbits = 0x42
                    0x0044                  CORCON = 0x44
                    0x0044                  _CORCON = 0x44
                    0x0044                  _CORCONbits = 0x44
                    0x0052                  DISICNT = 0x52
                    0x0052                  _DISICNT = 0x52
                    0x0054                  CNPD1 = 0x54
                    0x0054                  _CNPD1 = 0x54
                    0x0054                  _CNPD1bits = 0x54
                    0x0056                  CNPD2 = 0x56
                    0x0056                  _CNPD2 = 0x56
                    0x0056                  _CNPD2bits = 0x56
                    0x0058                  CNPD3 = 0x58
                    0x0058                  _CNPD3 = 0x58
                    0x0058                  _CNPD3bits = 0x58
                    0x005a                  CNPD4 = 0x5a
                    0x005a                  _CNPD4 = 0x5a
                    0x005a                  _CNPD4bits = 0x5a
                    0x005c                  CNPD5 = 0x5c
                    0x005c                  _CNPD5 = 0x5c
                    0x005c                  _CNPD5bits = 0x5c
                    0x005e                  CNPD6 = 0x5e
                    0x005e                  _CNPD6 = 0x5e
                    0x005e                  _CNPD6bits = 0x5e
                    0x0060                  CNEN1 = 0x60
                    0x0060                  _CNEN1 = 0x60
                    0x0060                  _CNEN1bits = 0x60
                    0x0062                  CNEN2 = 0x62
                    0x0062                  _CNEN2 = 0x62
                    0x0062                  _CNEN2bits = 0x62
                    0x0064                  CNEN3 = 0x64
                    0x0064                  _CNEN3 = 0x64
                    0x0064                  _CNEN3bits = 0x64
                    0x0066                  CNEN4 = 0x66
                    0x0066                  _CNEN4 = 0x66
                    0x0066                  _CNEN4bits = 0x66
                    0x0068                  CNEN5 = 0x68
                    0x0068                  _CNEN5 = 0x68
                    0x0068                  _CNEN5bits = 0x68
                    0x006a                  CNEN6 = 0x6a
                    0x006a                  _CNEN6 = 0x6a
                    0x006a                  _CNEN6bits = 0x6a
                    0x006c                  CNPU1 = 0x6c
                    0x006c                  _CNPU1 = 0x6c
                    0x006c                  _CNPU1bits = 0x6c
                    0x006e                  CNPU2 = 0x6e
                    0x006e                  _CNPU2 = 0x6e
                    0x006e                  _CNPU2bits = 0x6e
                    0x0070                  CNPU3 = 0x70
                    0x0070                  _CNPU3 = 0x70
                    0x0070                  _CNPU3bits = 0x70
                    0x0072                  CNPU4 = 0x72
                    0x0072                  _CNPU4 = 0x72
                    0x0072                  _CNPU4bits = 0x72
                    0x0074                  CNPU5 = 0x74
                    0x0074                  _CNPU5 = 0x74
                    0x0074                  _CNPU5bits = 0x74
                    0x0076                  CNPU6 = 0x76
                    0x0076                  _CNPU6 = 0x76
                    0x0076                  _CNPU6bits = 0x76
                    0x0080                  INTCON1 = 0x80
                    0x0080                  _INTCON1 = 0x80
                    0x0080                  _INTCON1bits = 0x80
                    0x0082                  INTCON2 = 0x82
                    0x0082                  _INTCON2 = 0x82
                    0x0082                  _INTCON2bits = 0x82
                    0x0084                  IFS0 = 0x84
                    0x0084                  _IFS0 = 0x84
                    0x0084                  _IFS0bits = 0x84
                    0x0086                  IFS1 = 0x86
                    0x0086                  _IFS1 = 0x86
                    0x0086                  _IFS1bits = 0x86
                    0x0088                  IFS2 = 0x88
                    0x0088                  _IFS2 = 0x88
                    0x0088                  _IFS2bits = 0x88
                    0x008a                  IFS3 = 0x8a
                    0x008a                  _IFS3 = 0x8a
                    0x008a                  _IFS3bits = 0x8a
                    0x008c                  IFS4 = 0x8c
                    0x008c                  _IFS4 = 0x8c
                    0x008c                  _IFS4bits = 0x8c
                    0x008e                  IFS5 = 0x8e
                    0x008e                  _IFS5 = 0x8e
                    0x008e                  _IFS5bits = 0x8e
                    0x0094                  IEC0 = 0x94
                    0x0094                  _IEC0 = 0x94
                    0x0094                  _IEC0bits = 0x94
                    0x0096                  IEC1 = 0x96
                    0x0096                  _IEC1 = 0x96
                    0x0096                  _IEC1bits = 0x96
                    0x0098                  IEC2 = 0x98
                    0x0098                  _IEC2 = 0x98
                    0x0098                  _IEC2bits = 0x98
                    0x009a                  IEC3 = 0x9a
                    0x009a                  _IEC3 = 0x9a
                    0x009a                  _IEC3bits = 0x9a
                    0x009c                  IEC4 = 0x9c
                    0x009c                  _IEC4 = 0x9c
                    0x009c                  _IEC4bits = 0x9c
                    0x009e                  IEC5 = 0x9e
                    0x009e                  _IEC5 = 0x9e
                    0x009e                  _IEC5bits = 0x9e
                    0x00a4                  IPC0 = 0xa4
                    0x00a4                  _IPC0 = 0xa4
                    0x00a4                  _IPC0bits = 0xa4
                    0x00a6                  IPC1 = 0xa6
                    0x00a6                  _IPC1 = 0xa6
                    0x00a6                  _IPC1bits = 0xa6
                    0x00a8                  IPC2 = 0xa8
                    0x00a8                  _IPC2 = 0xa8
                    0x00a8                  _IPC2bits = 0xa8
                    0x00aa                  IPC3 = 0xaa
                    0x00aa                  _IPC3 = 0xaa
                    0x00aa                  _IPC3bits = 0xaa
                    0x00ac                  IPC4 = 0xac
                    0x00ac                  _IPC4 = 0xac
                    0x00ac                  _IPC4bits = 0xac
                    0x00ae                  IPC5 = 0xae
                    0x00ae                  _IPC5 = 0xae
                    0x00ae                  _IPC5bits = 0xae
                    0x00b0                  IPC6 = 0xb0
                    0x00b0                  _IPC6 = 0xb0
                    0x00b0                  _IPC6bits = 0xb0
                    0x00b2                  IPC7 = 0xb2
                    0x00b2                  _IPC7 = 0xb2
                    0x00b2                  _IPC7bits = 0xb2
                    0x00b4                  IPC8 = 0xb4
                    0x00b4                  _IPC8 = 0xb4
                    0x00b4                  _IPC8bits = 0xb4
                    0x00b6                  IPC9 = 0xb6
                    0x00b6                  _IPC9 = 0xb6
                    0x00b6                  _IPC9bits = 0xb6
                    0x00b8                  IPC10 = 0xb8
                    0x00b8                  _IPC10 = 0xb8
                    0x00b8                  _IPC10bits = 0xb8
                    0x00ba                  IPC11 = 0xba
                    0x00ba                  _IPC11 = 0xba
                    0x00ba                  _IPC11bits = 0xba
                    0x00bc                  IPC12 = 0xbc
                    0x00bc                  _IPC12 = 0xbc
                    0x00bc                  _IPC12bits = 0xbc
                    0x00be                  IPC13 = 0xbe
                    0x00be                  _IPC13 = 0xbe
                    0x00be                  _IPC13bits = 0xbe
                    0x00c2                  IPC15 = 0xc2
                    0x00c2                  _IPC15 = 0xc2
                    0x00c2                  _IPC15bits = 0xc2
                    0x00c4                  IPC16 = 0xc4
                    0x00c4                  _IPC16 = 0xc4
                    0x00c4                  _IPC16bits = 0xc4
                    0x00c8                  IPC18 = 0xc8
                    0x00c8                  _IPC18 = 0xc8
                    0x00c8                  _IPC18bits = 0xc8
                    0x00ca                  IPC19 = 0xca
                    0x00ca                  _IPC19 = 0xca
                    0x00ca                  _IPC19bits = 0xca
                    0x00cc                  IPC20 = 0xcc
                    0x00cc                  _IPC20 = 0xcc
                    0x00cc                  _IPC20bits = 0xcc
                    0x00ce                  IPC21 = 0xce
                    0x00ce                  _IPC21 = 0xce
                    0x00ce                  _IPC21bits = 0xce
                    0x00d0                  IPC22 = 0xd0
                    0x00d0                  _IPC22 = 0xd0
                    0x00d0                  _IPC22bits = 0xd0
                    0x00d2                  IPC23 = 0xd2
                    0x00d2                  _IPC23 = 0xd2
                    0x00d2                  _IPC23bits = 0xd2
                    0x0100                  TMR1 = 0x100
                    0x0100                  _TMR1 = 0x100
                    0x0102                  PR1 = 0x102
                    0x0102                  _PR1 = 0x102
                    0x0104                  T1CON = 0x104
                    0x0104                  _T1CON = 0x104
                    0x0104                  _T1CONbits = 0x104
                    0x0106                  TMR2 = 0x106
                    0x0106                  _TMR2 = 0x106
                    0x0108                  TMR3HLD = 0x108
                    0x0108                  _TMR3HLD = 0x108
                    0x010a                  TMR3 = 0x10a
                    0x010a                  _TMR3 = 0x10a
                    0x010c                  PR2 = 0x10c
                    0x010c                  _PR2 = 0x10c
                    0x010e                  PR3 = 0x10e
                    0x010e                  _PR3 = 0x10e
                    0x0110                  T2CON = 0x110
                    0x0110                  _T2CON = 0x110
                    0x0110                  _T2CONbits = 0x110
                    0x0112                  T3CON = 0x112
                    0x0112                  _T3CON = 0x112
                    0x0112                  _T3CONbits = 0x112
                    0x0114                  TMR4 = 0x114
                    0x0114                  _TMR4 = 0x114
                    0x0116                  TMR5HLD = 0x116
                    0x0116                  _TMR5HLD = 0x116
                    0x0118                  TMR5 = 0x118
                    0x0118                  _TMR5 = 0x118
                    0x011a                  PR4 = 0x11a
                    0x011a                  _PR4 = 0x11a
                    0x011c                  PR5 = 0x11c
                    0x011c                  _PR5 = 0x11c
                    0x011e                  T4CON = 0x11e
                    0x011e                  _T4CON = 0x11e
                    0x011e                  _T4CONbits = 0x11e
                    0x0120                  T5CON = 0x120
                    0x0120                  _T5CON = 0x120
                    0x0120                  _T5CONbits = 0x120
                    0x0140                  IC1CON1 = 0x140
                    0x0140                  _IC1CON1 = 0x140
                    0x0140                  _IC1CON1bits = 0x140
                    0x0142                  IC1CON2 = 0x142
                    0x0142                  _IC1CON2 = 0x142
                    0x0142                  _IC1CON2bits = 0x142
                    0x0144                  IC1BUF = 0x144
                    0x0144                  _IC1BUF = 0x144
                    0x0146                  IC1TMR = 0x146
                    0x0146                  _IC1TMR = 0x146
                    0x0148                  IC2CON1 = 0x148
                    0x0148                  _IC2CON1 = 0x148
                    0x0148                  _IC2CON1bits = 0x148
                    0x014a                  IC2CON2 = 0x14a
                    0x014a                  _IC2CON2 = 0x14a
                    0x014a                  _IC2CON2bits = 0x14a
                    0x014c                  IC2BUF = 0x14c
                    0x014c                  _IC2BUF = 0x14c
                    0x014e                  IC2TMR = 0x14e
                    0x014e                  _IC2TMR = 0x14e
                    0x0150                  IC3CON1 = 0x150
                    0x0150                  _IC3CON1 = 0x150
                    0x0150                  _IC3CON1bits = 0x150
                    0x0152                  IC3CON2 = 0x152
                    0x0152                  _IC3CON2 = 0x152
                    0x0152                  _IC3CON2bits = 0x152
                    0x0154                  IC3BUF = 0x154
                    0x0154                  _IC3BUF = 0x154
                    0x0156                  IC3TMR = 0x156
                    0x0156                  _IC3TMR = 0x156
                    0x0158                  IC4CON1 = 0x158
                    0x0158                  _IC4CON1 = 0x158
                    0x0158                  _IC4CON1bits = 0x158
                    0x015a                  IC4CON2 = 0x15a
                    0x015a                  _IC4CON2 = 0x15a
                    0x015a                  _IC4CON2bits = 0x15a
                    0x015c                  IC4BUF = 0x15c
                    0x015c                  _IC4BUF = 0x15c
                    0x015e                  IC4TMR = 0x15e
                    0x015e                  _IC4TMR = 0x15e
                    0x0160                  IC5CON1 = 0x160
                    0x0160                  _IC5CON1 = 0x160
                    0x0160                  _IC5CON1bits = 0x160
                    0x0162                  IC5CON2 = 0x162
                    0x0162                  _IC5CON2 = 0x162
                    0x0162                  _IC5CON2bits = 0x162
                    0x0164                  IC5BUF = 0x164
                    0x0164                  _IC5BUF = 0x164
                    0x0166                  IC5TMR = 0x166
                    0x0166                  _IC5TMR = 0x166
                    0x0168                  IC6CON1 = 0x168
                    0x0168                  _IC6CON1 = 0x168
                    0x0168                  _IC6CON1bits = 0x168
                    0x016a                  IC6CON2 = 0x16a
                    0x016a                  _IC6CON2 = 0x16a
                    0x016a                  _IC6CON2bits = 0x16a
                    0x016c                  IC6BUF = 0x16c
                    0x016c                  _IC6BUF = 0x16c
                    0x016e                  IC6TMR = 0x16e
                    0x016e                  _IC6TMR = 0x16e
                    0x0170                  IC7CON1 = 0x170
                    0x0170                  _IC7CON1 = 0x170
                    0x0170                  _IC7CON1bits = 0x170
                    0x0172                  IC7CON2 = 0x172
                    0x0172                  _IC7CON2 = 0x172
                    0x0172                  _IC7CON2bits = 0x172
                    0x0174                  IC7BUF = 0x174
                    0x0174                  _IC7BUF = 0x174
                    0x0176                  IC7TMR = 0x176
                    0x0176                  _IC7TMR = 0x176
                    0x0178                  IC8CON1 = 0x178
                    0x0178                  _IC8CON1 = 0x178
                    0x0178                  _IC8CON1bits = 0x178
                    0x017a                  IC8CON2 = 0x17a
                    0x017a                  _IC8CON2 = 0x17a
                    0x017a                  _IC8CON2bits = 0x17a
                    0x017c                  IC8BUF = 0x17c
                    0x017c                  _IC8BUF = 0x17c
                    0x017e                  IC8TMR = 0x17e
                    0x017e                  _IC8TMR = 0x17e
                    0x0180                  IC9CON1 = 0x180
                    0x0180                  _IC9CON1 = 0x180
                    0x0180                  _IC9CON1bits = 0x180
                    0x0182                  IC9CON2 = 0x182
                    0x0182                  _IC9CON2 = 0x182
                    0x0182                  _IC9CON2bits = 0x182
                    0x0184                  IC9BUF = 0x184
                    0x0184                  _IC9BUF = 0x184
                    0x0186                  IC9TMR = 0x186
                    0x0186                  _IC9TMR = 0x186
                    0x0190                  OC1CON1 = 0x190
                    0x0190                  _OC1CON1 = 0x190
                    0x0190                  _OC1CON1bits = 0x190
                    0x0192                  OC1CON2 = 0x192
                    0x0192                  _OC1CON2 = 0x192
                    0x0192                  _OC1CON2bits = 0x192
                    0x0194                  OC1RS = 0x194
                    0x0194                  _OC1RS = 0x194
                    0x0196                  OC1R = 0x196
                    0x0196                  _OC1R = 0x196
                    0x0198                  OC1TMR = 0x198
                    0x0198                  _OC1TMR = 0x198
                    0x019a                  OC2CON1 = 0x19a
                    0x019a                  _OC2CON1 = 0x19a
                    0x019a                  _OC2CON1bits = 0x19a
                    0x019c                  OC2CON2 = 0x19c
                    0x019c                  _OC2CON2 = 0x19c
                    0x019c                  _OC2CON2bits = 0x19c
                    0x019e                  OC2RS = 0x19e
                    0x019e                  _OC2RS = 0x19e
                    0x01a0                  OC2R = 0x1a0
                    0x01a0                  _OC2R = 0x1a0
                    0x01a2                  OC2TMR = 0x1a2
                    0x01a2                  _OC2TMR = 0x1a2
                    0x01a4                  OC3CON1 = 0x1a4
                    0x01a4                  _OC3CON1 = 0x1a4
                    0x01a4                  _OC3CON1bits = 0x1a4
                    0x01a6                  OC3CON2 = 0x1a6
                    0x01a6                  _OC3CON2 = 0x1a6
                    0x01a6                  _OC3CON2bits = 0x1a6
                    0x01a8                  OC3RS = 0x1a8
                    0x01a8                  _OC3RS = 0x1a8
                    0x01aa                  OC3R = 0x1aa
                    0x01aa                  _OC3R = 0x1aa
                    0x01ac                  OC3TMR = 0x1ac
                    0x01ac                  _OC3TMR = 0x1ac
                    0x01ae                  OC4CON1 = 0x1ae
                    0x01ae                  _OC4CON1 = 0x1ae
                    0x01ae                  _OC4CON1bits = 0x1ae
                    0x01b0                  OC4CON2 = 0x1b0
                    0x01b0                  _OC4CON2 = 0x1b0
                    0x01b0                  _OC4CON2bits = 0x1b0
                    0x01b2                  OC4RS = 0x1b2
                    0x01b2                  _OC4RS = 0x1b2
                    0x01b4                  OC4R = 0x1b4
                    0x01b4                  _OC4R = 0x1b4
                    0x01b6                  OC4TMR = 0x1b6
                    0x01b6                  _OC4TMR = 0x1b6
                    0x01b8                  OC5CON1 = 0x1b8
                    0x01b8                  _OC5CON1 = 0x1b8
                    0x01b8                  _OC5CON1bits = 0x1b8
                    0x01ba                  OC5CON2 = 0x1ba
                    0x01ba                  _OC5CON2 = 0x1ba
                    0x01ba                  _OC5CON2bits = 0x1ba
                    0x01bc                  OC5RS = 0x1bc
                    0x01bc                  _OC5RS = 0x1bc
                    0x01be                  OC5R = 0x1be
                    0x01be                  _OC5R = 0x1be
                    0x01c0                  OC5TMR = 0x1c0
                    0x01c0                  _OC5TMR = 0x1c0
                    0x01c2                  OC6CON1 = 0x1c2
                    0x01c2                  _OC6CON1 = 0x1c2
                    0x01c2                  _OC6CON1bits = 0x1c2
                    0x01c4                  OC6CON2 = 0x1c4
                    0x01c4                  _OC6CON2 = 0x1c4
                    0x01c4                  _OC6CON2bits = 0x1c4
                    0x01c6                  OC6RS = 0x1c6
                    0x01c6                  _OC6RS = 0x1c6
                    0x01c8                  OC6R = 0x1c8
                    0x01c8                  _OC6R = 0x1c8
                    0x01ca                  OC6TMR = 0x1ca
                    0x01ca                  _OC6TMR = 0x1ca
                    0x01cc                  OC7CON1 = 0x1cc
                    0x01cc                  _OC7CON1 = 0x1cc
                    0x01cc                  _OC7CON1bits = 0x1cc
                    0x01ce                  OC7CON2 = 0x1ce
                    0x01ce                  _OC7CON2 = 0x1ce
                    0x01ce                  _OC7CON2bits = 0x1ce
                    0x01d0                  OC7RS = 0x1d0
                    0x01d0                  _OC7RS = 0x1d0
                    0x01d2                  OC7R = 0x1d2
                    0x01d2                  _OC7R = 0x1d2
                    0x01d4                  OC7TMR = 0x1d4
                    0x01d4                  _OC7TMR = 0x1d4
                    0x01d6                  OC8CON1 = 0x1d6
                    0x01d6                  _OC8CON1 = 0x1d6
                    0x01d6                  _OC8CON1bits = 0x1d6
                    0x01d8                  OC8CON2 = 0x1d8
                    0x01d8                  _OC8CON2 = 0x1d8
                    0x01d8                  _OC8CON2bits = 0x1d8
                    0x01da                  OC8RS = 0x1da
                    0x01da                  _OC8RS = 0x1da
                    0x01dc                  OC8R = 0x1dc
                    0x01dc                  _OC8R = 0x1dc
                    0x01de                  OC8TMR = 0x1de
                    0x01de                  _OC8TMR = 0x1de
                    0x01e0                  OC9CON1 = 0x1e0
                    0x01e0                  _OC9CON1 = 0x1e0
                    0x01e0                  _OC9CON1bits = 0x1e0
                    0x01e2                  OC9CON2 = 0x1e2
                    0x01e2                  _OC9CON2 = 0x1e2
                    0x01e2                  _OC9CON2bits = 0x1e2
                    0x01e4                  OC9RS = 0x1e4
                    0x01e4                  _OC9RS = 0x1e4
                    0x01e6                  OC9R = 0x1e6
                    0x01e6                  _OC9R = 0x1e6
                    0x01e8                  OC9TMR = 0x1e8
                    0x01e8                  _OC9TMR = 0x1e8
                    0x0200                  I2C1RCV = 0x200
                    0x0200                  _I2C1RCV = 0x200
                    0x0202                  I2C1TRN = 0x202
                    0x0202                  _I2C1TRN = 0x202
                    0x0204                  I2C1BRG = 0x204
                    0x0204                  _I2C1BRG = 0x204
                    0x0206                  I2C1CON = 0x206
                    0x0206                  _I2C1CON = 0x206
                    0x0206                  _I2C1CONbits = 0x206
                    0x0208                  I2C1STAT = 0x208
                    0x0208                  _I2C1STAT = 0x208
                    0x0208                  _I2C1STATbits = 0x208
                    0x020a                  I2C1ADD = 0x20a
                    0x020a                  _I2C1ADD = 0x20a
                    0x020c                  I2C1MSK = 0x20c
                    0x020c                  _I2C1MSK = 0x20c
                    0x0210                  I2C2RCV = 0x210
                    0x0210                  _I2C2RCV = 0x210
                    0x0212                  I2C2TRN = 0x212
                    0x0212                  _I2C2TRN = 0x212
                    0x0214                  I2C2BRG = 0x214
                    0x0214                  _I2C2BRG = 0x214
                    0x0216                  I2C2CON = 0x216
                    0x0216                  _I2C2CON = 0x216
                    0x0216                  _I2C2CONbits = 0x216
                    0x0218                  I2C2STAT = 0x218
                    0x0218                  _I2C2STAT = 0x218
                    0x0218                  _I2C2STATbits = 0x218
                    0x021a                  I2C2ADD = 0x21a
                    0x021a                  _I2C2ADD = 0x21a
                    0x021c                  I2C2MSK = 0x21c
                    0x021c                  _I2C2MSK = 0x21c
                    0x0220                  U1MODE = 0x220
                    0x0220                  _U1MODE = 0x220
                    0x0220                  _U1MODEbits = 0x220
                    0x0222                  U1STA = 0x222
                    0x0222                  _U1STA = 0x222
                    0x0222                  _U1STAbits = 0x222
                    0x0224                  U1TXREG = 0x224
                    0x0224                  _U1TXREG = 0x224
                    0x0226                  U1RXREG = 0x226
                    0x0226                  _U1RXREG = 0x226
                    0x0228                  U1BRG = 0x228
                    0x0228                  _U1BRG = 0x228
                    0x0230                  U2MODE = 0x230
                    0x0230                  _U2MODE = 0x230
                    0x0230                  _U2MODEbits = 0x230
                    0x0232                  U2STA = 0x232
                    0x0232                  _U2STA = 0x232
                    0x0232                  _U2STAbits = 0x232
                    0x0234                  U2TXREG = 0x234
                    0x0234                  _U2TXREG = 0x234
                    0x0236                  U2RXREG = 0x236
                    0x0236                  _U2RXREG = 0x236
                    0x0238                  U2BRG = 0x238
                    0x0238                  _U2BRG = 0x238
                    0x0240                  SPI1STAT = 0x240
                    0x0240                  _SPI1STAT = 0x240
                    0x0240                  _SPI1STATbits = 0x240
                    0x0242                  SPI1CON1 = 0x242
                    0x0242                  _SPI1CON1 = 0x242
                    0x0242                  _SPI1CON1bits = 0x242
                    0x0244                  SPI1CON2 = 0x244
                    0x0244                  _SPI1CON2 = 0x244
                    0x0244                  _SPI1CON2bits = 0x244
                    0x0248                  SPI1BUF = 0x248
                    0x0248                  _SPI1BUF = 0x248
                    0x0250                  U3MODE = 0x250
                    0x0250                  _U3MODE = 0x250
                    0x0250                  _U3MODEbits = 0x250
                    0x0252                  U3STA = 0x252
                    0x0252                  _U3STA = 0x252
                    0x0252                  _U3STAbits = 0x252
                    0x0254                  U3TXREG = 0x254
                    0x0254                  _U3TXREG = 0x254
                    0x0256                  U3RXREG = 0x256
                    0x0256                  _U3RXREG = 0x256
                    0x0258                  U3BRG = 0x258
                    0x0258                  _U3BRG = 0x258
                    0x0260                  SPI2STAT = 0x260
                    0x0260                  _SPI2STAT = 0x260
                    0x0260                  _SPI2STATbits = 0x260
                    0x0262                  SPI2CON1 = 0x262
                    0x0262                  _SPI2CON1 = 0x262
                    0x0262                  _SPI2CON1bits = 0x262
                    0x0264                  SPI2CON2 = 0x264
                    0x0264                  _SPI2CON2 = 0x264
                    0x0264                  _SPI2CON2bits = 0x264
                    0x0268                  SPI2BUF = 0x268
                    0x0268                  _SPI2BUF = 0x268
                    0x0270                  I2C3RCV = 0x270
                    0x0270                  _I2C3RCV = 0x270
                    0x0272                  I2C3TRN = 0x272
                    0x0272                  _I2C3TRN = 0x272
                    0x0274                  I2C3BRG = 0x274
                    0x0274                  _I2C3BRG = 0x274
                    0x0276                  I2C3CON = 0x276
                    0x0276                  _I2C3CON = 0x276
                    0x0276                  _I2C3CONbits = 0x276
                    0x0278                  I2C3STAT = 0x278
                    0x0278                  _I2C3STAT = 0x278
                    0x0278                  _I2C3STATbits = 0x278
                    0x027a                  I2C3ADD = 0x27a
                    0x027a                  _I2C3ADD = 0x27a
                    0x027c                  I2C3MSK = 0x27c
                    0x027c                  _I2C3MSK = 0x27c
                    0x0280                  SPI3STAT = 0x280
                    0x0280                  _SPI3STAT = 0x280
                    0x0280                  _SPI3STATbits = 0x280
                    0x0282                  SPI3CON1 = 0x282
                    0x0282                  _SPI3CON1 = 0x282
                    0x0282                  _SPI3CON1bits = 0x282
                    0x0284                  SPI3CON2 = 0x284
                    0x0284                  _SPI3CON2 = 0x284
                    0x0284                  _SPI3CON2bits = 0x284
                    0x0288                  SPI3BUF = 0x288
                    0x0288                  _SPI3BUF = 0x288
                    0x02b0                  U4MODE = 0x2b0
                    0x02b0                  _U4MODE = 0x2b0
                    0x02b0                  _U4MODEbits = 0x2b0
                    0x02b2                  U4STA = 0x2b2
                    0x02b2                  _U4STA = 0x2b2
                    0x02b2                  _U4STAbits = 0x2b2
                    0x02b4                  U4TXREG = 0x2b4
                    0x02b4                  _U4TXREG = 0x2b4
                    0x02b6                  U4RXREG = 0x2b6
                    0x02b6                  _U4RXREG = 0x2b6
                    0x02b8                  U4BRG = 0x2b8
                    0x02b8                  _U4BRG = 0x2b8
                    0x02c8                  TRISB = 0x2c8
                    0x02c8                  _TRISB = 0x2c8
                    0x02c8                  _TRISBbits = 0x2c8
                    0x02ca                  PORTB = 0x2ca
                    0x02ca                  _PORTB = 0x2ca
                    0x02ca                  _PORTBbits = 0x2ca
                    0x02cc                  LATB = 0x2cc
                    0x02cc                  _LATB = 0x2cc
                    0x02cc                  _LATBbits = 0x2cc
                    0x02ce                  ODCB = 0x2ce
                    0x02ce                  _ODCB = 0x2ce
                    0x02ce                  _ODCBbits = 0x2ce
                    0x02d0                  TRISC = 0x2d0
                    0x02d0                  _TRISC = 0x2d0
                    0x02d0                  _TRISCbits = 0x2d0
                    0x02d2                  PORTC = 0x2d2
                    0x02d2                  _PORTC = 0x2d2
                    0x02d2                  _PORTCbits = 0x2d2
                    0x02d4                  LATC = 0x2d4
                    0x02d4                  _LATC = 0x2d4
                    0x02d4                  _LATCbits = 0x2d4
                    0x02d6                  ODCC = 0x2d6
                    0x02d6                  _ODCC = 0x2d6
                    0x02d6                  _ODCCbits = 0x2d6
                    0x02d8                  TRISD = 0x2d8
                    0x02d8                  _TRISD = 0x2d8
                    0x02d8                  _TRISDbits = 0x2d8
                    0x02da                  PORTD = 0x2da
                    0x02da                  _PORTD = 0x2da
                    0x02da                  _PORTDbits = 0x2da
                    0x02dc                  LATD = 0x2dc
                    0x02dc                  _LATD = 0x2dc
                    0x02dc                  _LATDbits = 0x2dc
                    0x02de                  ODCD = 0x2de
                    0x02de                  _ODCD = 0x2de
                    0x02de                  _ODCDbits = 0x2de
                    0x02e0                  TRISE = 0x2e0
                    0x02e0                  _TRISE = 0x2e0
                    0x02e0                  _TRISEbits = 0x2e0
                    0x02e2                  PORTE = 0x2e2
                    0x02e2                  _PORTE = 0x2e2
                    0x02e2                  _PORTEbits = 0x2e2
                    0x02e4                  LATE = 0x2e4
                    0x02e4                  _LATE = 0x2e4
                    0x02e4                  _LATEbits = 0x2e4
                    0x02e6                  ODCE = 0x2e6
                    0x02e6                  _ODCE = 0x2e6
                    0x02e6                  _ODCEbits = 0x2e6
                    0x02e8                  TRISF = 0x2e8
                    0x02e8                  _TRISF = 0x2e8
                    0x02e8                  _TRISFbits = 0x2e8
                    0x02ea                  PORTF = 0x2ea
                    0x02ea                  _PORTF = 0x2ea
                    0x02ea                  _PORTFbits = 0x2ea
                    0x02ec                  LATF = 0x2ec
                    0x02ec                  _LATF = 0x2ec
                    0x02ec                  _LATFbits = 0x2ec
                    0x02ee                  ODCF = 0x2ee
                    0x02ee                  _ODCF = 0x2ee
                    0x02ee                  _ODCFbits = 0x2ee
                    0x02f0                  TRISG = 0x2f0
                    0x02f0                  _TRISG = 0x2f0
                    0x02f0                  _TRISGbits = 0x2f0
                    0x02f2                  PORTG = 0x2f2
                    0x02f2                  _PORTG = 0x2f2
                    0x02f2                  _PORTGbits = 0x2f2
                    0x02f4                  LATG = 0x2f4
                    0x02f4                  _LATG = 0x2f4
                    0x02f4                  _LATGbits = 0x2f4
                    0x02f6                  ODCG = 0x2f6
                    0x02f6                  _ODCG = 0x2f6
                    0x02f6                  _ODCGbits = 0x2f6
                    0x02fc                  PADCFG1 = 0x2fc
                    0x02fc                  _PADCFG1 = 0x2fc
                    0x02fc                  _PADCFG1bits = 0x2fc
                    0x0300                  ADC1BUF0 = 0x300
                    0x0300                  _ADC1BUF0 = 0x300
                    0x0302                  ADC1BUF1 = 0x302
                    0x0302                  _ADC1BUF1 = 0x302
                    0x0304                  ADC1BUF2 = 0x304
                    0x0304                  _ADC1BUF2 = 0x304
                    0x0306                  ADC1BUF3 = 0x306
                    0x0306                  _ADC1BUF3 = 0x306
                    0x0308                  ADC1BUF4 = 0x308
                    0x0308                  _ADC1BUF4 = 0x308
                    0x030a                  ADC1BUF5 = 0x30a
                    0x030a                  _ADC1BUF5 = 0x30a
                    0x030c                  ADC1BUF6 = 0x30c
                    0x030c                  _ADC1BUF6 = 0x30c
                    0x030e                  ADC1BUF7 = 0x30e
                    0x030e                  _ADC1BUF7 = 0x30e
                    0x0310                  ADC1BUF8 = 0x310
                    0x0310                  _ADC1BUF8 = 0x310
                    0x0312                  ADC1BUF9 = 0x312
                    0x0312                  _ADC1BUF9 = 0x312
                    0x0314                  ADC1BUFA = 0x314
                    0x0314                  _ADC1BUFA = 0x314
                    0x0316                  ADC1BUFB = 0x316
                    0x0316                  _ADC1BUFB = 0x316
                    0x0318                  ADC1BUFC = 0x318
                    0x0318                  _ADC1BUFC = 0x318
                    0x031a                  ADC1BUFD = 0x31a
                    0x031a                  _ADC1BUFD = 0x31a
                    0x031c                  ADC1BUFE = 0x31c
                    0x031c                  _ADC1BUFE = 0x31c
                    0x031e                  ADC1BUFF = 0x31e
                    0x031e                  _ADC1BUFF = 0x31e
                    0x0320                  AD1CON1 = 0x320
                    0x0320                  _AD1CON1 = 0x320
                    0x0320                  _AD1CON1bits = 0x320
                    0x0322                  AD1CON2 = 0x322
                    0x0322                  _AD1CON2 = 0x322
                    0x0322                  _AD1CON2bits = 0x322
                    0x0324                  AD1CON3 = 0x324
                    0x0324                  _AD1CON3 = 0x324
                    0x0324                  _AD1CON3bits = 0x324
                    0x0328                  AD1CHS = 0x328
                    0x0328                  _AD1CHS = 0x328
                    0x0328                  _AD1CHSbits = 0x328
                    0x0328                  AD1CHS0 = 0x328
                    0x0328                  _AD1CHS0 = 0x328
                    0x0328                  _AD1CHS0bits = 0x328
                    0x032a                  AD1PCFGH = 0x32a
                    0x032a                  _AD1PCFGH = 0x32a
                    0x032a                  _AD1PCFGHbits = 0x32a
                    0x032c                  AD1PCFG = 0x32c
                    0x032c                  _AD1PCFG = 0x32c
                    0x032c                  _AD1PCFGbits = 0x32c
                    0x032c                  AD1PCFGL = 0x32c
                    0x032c                  _AD1PCFGL = 0x32c
                    0x032c                  _AD1PCFGLbits = 0x32c
                    0x0330                  AD1CSSL = 0x330
                    0x0330                  _AD1CSSL = 0x330
                    0x0330                  _AD1CSSLbits = 0x330
                    0x0332                  AD1CSSH = 0x332
                    0x0332                  _AD1CSSH = 0x332
                    0x0332                  _AD1CSSHbits = 0x332
                    0x033c                  CTMUCON = 0x33c
                    0x033c                  _CTMUCON = 0x33c
                    0x033c                  _CTMUCONbits = 0x33c
                    0x033e                  CTMUICON = 0x33e
                    0x033e                  _CTMUICON = 0x33e
                    0x033e                  _CTMUICONbits = 0x33e
                    0x0600                  PMCON = 0x600
                    0x0600                  _PMCON = 0x600
                    0x0600                  _PMCONbits = 0x600
                    0x0602                  PMMODE = 0x602
                    0x0602                  _PMMODE = 0x602
                    0x0602                  _PMMODEbits = 0x602
                    0x0604                  PMADDR = 0x604
                    0x0604                  _PMADDR = 0x604
                    0x0604                  _PMADDRbits = 0x604
                    0x0604                  PMDOUT1 = 0x604
                    0x0604                  _PMDOUT1 = 0x604
                    0x0604                  _PMDOUT1bits = 0x604
                    0x0606                  PMDOUT2 = 0x606
                    0x0606                  _PMDOUT2 = 0x606
                    0x0608                  PMDIN1 = 0x608
                    0x0608                  _PMDIN1 = 0x608
                    0x060a                  PMDIN2 = 0x60a
                    0x060a                  _PMDIN2 = 0x60a
                    0x060c                  PMAEN = 0x60c
                    0x060c                  _PMAEN = 0x60c
                    0x060c                  _PMAENbits = 0x60c
                    0x060e                  PMSTAT = 0x60e
                    0x060e                  _PMSTAT = 0x60e
                    0x060e                  _PMSTATbits = 0x60e
                    0x0620                  ALRMVAL = 0x620
                    0x0620                  _ALRMVAL = 0x620
                    0x0622                  ALCFGRPT = 0x622
                    0x0622                  _ALCFGRPT = 0x622
                    0x0622                  _ALCFGRPTbits = 0x622
                    0x0624                  RTCVAL = 0x624
                    0x0624                  _RTCVAL = 0x624
                    0x0626                  RCFGCAL = 0x626
                    0x0626                  _RCFGCAL = 0x626
                    0x0626                  _RCFGCALbits = 0x626
                    0x0630                  CMSTAT = 0x630
                    0x0630                  _CMSTAT = 0x630
                    0x0630                  _CMSTATbits = 0x630
                    0x0632                  CVRCON = 0x632
                    0x0632                  _CVRCON = 0x632
                    0x0632                  _CVRCONbits = 0x632
                    0x0634                  CM1CON = 0x634
                    0x0634                  _CM1CON = 0x634
                    0x0634                  _CM1CONbits = 0x634
                    0x0636                  CM2CON = 0x636
                    0x0636                  _CM2CON = 0x636
                    0x0636                  _CM2CONbits = 0x636
                    0x0638                  CM3CON = 0x638
                    0x0638                  _CM3CON = 0x638
                    0x0638                  _CM3CONbits = 0x638
                    0x0640                  CRCCON = 0x640
                    0x0640                  _CRCCON = 0x640
                    0x0640                  _CRCCONbits = 0x640
                    0x0642                  CRCXOR = 0x642
                    0x0642                  _CRCXOR = 0x642
                    0x0642                  _CRCXORbits = 0x642
                    0x0644                  CRCDAT = 0x644
                    0x0644                  _CRCDAT = 0x644
                    0x0646                  CRCWDAT = 0x646
                    0x0646                  _CRCWDAT = 0x646
                    0x0680                  RPINR0 = 0x680
                    0x0680                  _RPINR0 = 0x680
                    0x0680                  _RPINR0bits = 0x680
                    0x0682                  RPINR1 = 0x682
                    0x0682                  _RPINR1 = 0x682
                    0x0682                  _RPINR1bits = 0x682
                    0x0684                  RPINR2 = 0x684
                    0x0684                  _RPINR2 = 0x684
                    0x0684                  _RPINR2bits = 0x684
                    0x0686                  RPINR3 = 0x686
                    0x0686                  _RPINR3 = 0x686
                    0x0686                  _RPINR3bits = 0x686
                    0x0688                  RPINR4 = 0x688
                    0x0688                  _RPINR4 = 0x688
                    0x0688                  _RPINR4bits = 0x688
                    0x068e                  RPINR7 = 0x68e
                    0x068e                  _RPINR7 = 0x68e
                    0x068e                  _RPINR7bits = 0x68e
                    0x0690                  RPINR8 = 0x690
                    0x0690                  _RPINR8 = 0x690
                    0x0690                  _RPINR8bits = 0x690
                    0x0692                  RPINR9 = 0x692
                    0x0692                  _RPINR9 = 0x692
                    0x0692                  _RPINR9bits = 0x692
                    0x0694                  RPINR10 = 0x694
                    0x0694                  _RPINR10 = 0x694
                    0x0694                  _RPINR10bits = 0x694
                    0x0696                  RPINR11 = 0x696
                    0x0696                  _RPINR11 = 0x696
                    0x0696                  _RPINR11bits = 0x696
                    0x069e                  RPINR15 = 0x69e
                    0x069e                  _RPINR15 = 0x69e
                    0x069e                  _RPINR15bits = 0x69e
                    0x06a2                  RPINR17 = 0x6a2
                    0x06a2                  _RPINR17 = 0x6a2
                    0x06a2                  _RPINR17bits = 0x6a2
                    0x06a4                  RPINR18 = 0x6a4
                    0x06a4                  _RPINR18 = 0x6a4
                    0x06a4                  _RPINR18bits = 0x6a4
                    0x06a6                  RPINR19 = 0x6a6
                    0x06a6                  _RPINR19 = 0x6a6
                    0x06a6                  _RPINR19bits = 0x6a6
                    0x06a8                  RPINR20 = 0x6a8
                    0x06a8                  _RPINR20 = 0x6a8
                    0x06a8                  _RPINR20bits = 0x6a8
                    0x06aa                  RPINR21 = 0x6aa
                    0x06aa                  _RPINR21 = 0x6aa
                    0x06aa                  _RPINR21bits = 0x6aa
                    0x06ac                  RPINR22 = 0x6ac
                    0x06ac                  _RPINR22 = 0x6ac
                    0x06ac                  _RPINR22bits = 0x6ac
                    0x06ae                  RPINR23 = 0x6ae
                    0x06ae                  _RPINR23 = 0x6ae
                    0x06ae                  _RPINR23bits = 0x6ae
                    0x06b6                  RPINR27 = 0x6b6
                    0x06b6                  _RPINR27 = 0x6b6
                    0x06b6                  _RPINR27bits = 0x6b6
                    0x06b8                  RPINR28 = 0x6b8
                    0x06b8                  _RPINR28 = 0x6b8
                    0x06b8                  _RPINR28bits = 0x6b8
                    0x06ba                  RPINR29 = 0x6ba
                    0x06ba                  _RPINR29 = 0x6ba
                    0x06ba                  _RPINR29bits = 0x6ba
                    0x06c0                  RPOR0 = 0x6c0
                    0x06c0                  _RPOR0 = 0x6c0
                    0x06c0                  _RPOR0bits = 0x6c0
                    0x06c2                  RPOR1 = 0x6c2
                    0x06c2                  _RPOR1 = 0x6c2
                    0x06c2                  _RPOR1bits = 0x6c2
                    0x06c4                  RPOR2 = 0x6c4
                    0x06c4                  _RPOR2 = 0x6c4
                    0x06c4                  _RPOR2bits = 0x6c4
                    0x06c6                  RPOR3 = 0x6c6
                    0x06c6                  _RPOR3 = 0x6c6
                    0x06c6                  _RPOR3bits = 0x6c6
                    0x06c8                  RPOR4 = 0x6c8
                    0x06c8                  _RPOR4 = 0x6c8
                    0x06c8                  _RPOR4bits = 0x6c8
                    0x06ca                  RPOR5 = 0x6ca
                    0x06ca                  _RPOR5 = 0x6ca
                    0x06ca                  _RPOR5bits = 0x6ca
                    0x06cc                  RPOR6 = 0x6cc
                    0x06cc                  _RPOR6 = 0x6cc
                    0x06cc                  _RPOR6bits = 0x6cc
                    0x06ce                  RPOR7 = 0x6ce
                    0x06ce                  _RPOR7 = 0x6ce
                    0x06ce                  _RPOR7bits = 0x6ce
                    0x06d0                  RPOR8 = 0x6d0
                    0x06d0                  _RPOR8 = 0x6d0
                    0x06d0                  _RPOR8bits = 0x6d0
                    0x06d2                  RPOR9 = 0x6d2
                    0x06d2                  _RPOR9 = 0x6d2
                    0x06d2                  _RPOR9bits = 0x6d2
                    0x06d4                  RPOR10 = 0x6d4
                    0x06d4                  _RPOR10 = 0x6d4
                    0x06d4                  _RPOR10bits = 0x6d4
                    0x06d6                  RPOR11 = 0x6d6
                    0x06d6                  _RPOR11 = 0x6d6
                    0x06d6                  _RPOR11bits = 0x6d6
                    0x06d8                  RPOR12 = 0x6d8
                    0x06d8                  _RPOR12 = 0x6d8
                    0x06d8                  _RPOR12bits = 0x6d8
                    0x06da                  RPOR13 = 0x6da
                    0x06da                  _RPOR13 = 0x6da
                    0x06da                  _RPOR13bits = 0x6da
                    0x06dc                  RPOR14 = 0x6dc
                    0x06dc                  _RPOR14 = 0x6dc
                    0x06dc                  _RPOR14bits = 0x6dc
                    0x06de                  RPOR15 = 0x6de
                    0x06de                  _RPOR15 = 0x6de
                    0x06de                  _RPOR15bits = 0x6de
                    0x06e2                  ALTRP = 0x6e2
                    0x06e2                  _ALTRP = 0x6e2
                    0x06e2                  _ALTRPbits = 0x6e2
                    0x0740                  RCON = 0x740
                    0x0740                  _RCON = 0x740
                    0x0740                  _RCONbits = 0x740
                    0x0742                  OSCCON = 0x742
                    0x0742                  _OSCCON = 0x742
                    0x0742                  _OSCCONbits = 0x742
                    0x0742                  OSCCONL = 0x742
                    0x0742                  _OSCCONL = 0x742
                    0x0743                  OSCCONH = 0x743
                    0x0743                  _OSCCONH = 0x743
                    0x0744                  CLKDIV = 0x744
                    0x0744                  _CLKDIV = 0x744
                    0x0744                  _CLKDIVbits = 0x744
                    0x0748                  OSCTUN = 0x748
                    0x0748                  _OSCTUN = 0x748
                    0x0748                  _OSCTUNbits = 0x748
                    0x074e                  REFOCON = 0x74e
                    0x074e                  _REFOCON = 0x74e
                    0x074e                  _REFOCONbits = 0x74e
                    0x0760                  NVMCON = 0x760
                    0x0760                  _NVMCON = 0x760
                    0x0760                  _NVMCONbits = 0x760
                    0x0766                  NVMKEY = 0x766
                    0x0766                  _NVMKEY = 0x766
                    0x0770                  PMD1 = 0x770
                    0x0770                  _PMD1 = 0x770
                    0x0770                  _PMD1bits = 0x770
                    0x0772                  PMD2 = 0x772
                    0x0772                  _PMD2 = 0x772
                    0x0772                  _PMD2bits = 0x772
                    0x0774                  PMD3 = 0x774
                    0x0774                  _PMD3 = 0x774
                    0x0774                  _PMD3bits = 0x774
                    0x0776                  PMD4 = 0x776
                    0x0776                  _PMD4 = 0x776
                    0x0776                  _PMD4bits = 0x776
                    0x0778                  PMD5 = 0x778
                    0x0778                  _PMD5 = 0x778
                    0x0778                  _PMD5bits = 0x778
                    0x077a                  PMD6 = 0x77a
                    0x077a                  _PMD6 = 0x77a
                    0x077a                  _PMD6bits = 0x77a
                    0x0144                  IC1 = 0x144
                    0x0144                  _IC1 = 0x144
                    0x014c                  IC2 = 0x14c
                    0x014c                  _IC2 = 0x14c
                    0x0154                  IC3 = 0x154
                    0x0154                  _IC3 = 0x154
                    0x015c                  IC4 = 0x15c
                    0x015c                  _IC4 = 0x15c
                    0x0164                  IC5 = 0x164
                    0x0164                  _IC5 = 0x164
                    0x016c                  IC6 = 0x16c
                    0x016c                  _IC6 = 0x16c
                    0x0174                  IC7 = 0x174
                    0x0174                  _IC7 = 0x174
                    0x017c                  IC8 = 0x17c
                    0x017c                  _IC8 = 0x17c
                    0x0194                  OC1 = 0x194
                    0x0194                  _OC1 = 0x194
                    0x019e                  OC2 = 0x19e
                    0x019e                  _OC2 = 0x19e
                    0x01a8                  OC3 = 0x1a8
                    0x01a8                  _OC3 = 0x1a8
                    0x01b2                  OC4 = 0x1b2
                    0x01b2                  _OC4 = 0x1b2
                    0x01bc                  OC5 = 0x1bc
                    0x01bc                  _OC5 = 0x1bc
                    0x01c6                  OC6 = 0x1c6
                    0x01c6                  _OC6 = 0x1c6
                    0x01d0                  OC7 = 0x1d0
                    0x01d0                  _OC7 = 0x1d0
                    0x01da                  OC8 = 0x1da
                    0x01da                  _OC8 = 0x1da
                    0x0240                  SPI1 = 0x240
                    0x0240                  _SPI1 = 0x240
                    0x0260                  SPI2 = 0x260
                    0x0260                  _SPI2 = 0x260
                    0x0220                  UART1 = 0x220
                    0x0220                  _UART1 = 0x220
                    0x0230                  UART2 = 0x230
                    0x0230                  _UART2 = 0x230
                    0x0001                  __MPLAB_BUILD = 0x1
LOAD c:/program files/microchip/mplab c30/bin/bin/../../lib\libpic30-coff.a
LOAD c:/program files/microchip/mplab c30/bin/bin/../../lib\libc-coff.a
LOAD c:/program files/microchip/mplab c30/bin/bin/../../lib\libm-coff.a
START GROUP
LOAD c:/program files/microchip/mplab c30/bin/bin/../../lib\libpic30-coff.a
LOAD c:/program files/microchip/mplab c30/bin/bin/../../lib\libm-coff.a
LOAD c:/program files/microchip/mplab c30/bin/bin/../../lib\libc-coff.a
END GROUP
OUTPUT(C:\projects\COMPOSE_Hackathon\Obj\a.cof coff-pic30)
LOAD jump_table
LOAD data_init

__c30_signature
                  0x000000        0x3d8
 __c30_signature
                  0x000000          0x6 Announce.o
 __c30_signature
                  0x000006          0x6 ARP.o
 __c30_signature
                  0x00000c          0x6 ARPlib.o
 __c30_signature
                  0x000012          0x6 BigInt.o
 __c30_signature
                  0x000018          0x6 Delay.o
 __c30_signature
                  0x00001e          0x6 DHCP.o
 __c30_signature
                  0x000024          0x6 DHCPs.o
 __c30_signature
                  0x00002a          0x6 DNS.o
 __c30_signature
                  0x000030          0x6 DNSs.o
 __c30_signature
                  0x000036          0x6 DynDNS.o
 __c30_signature
                  0x00003c          0x6 ENCX24J600.o
 __c30_signature
                  0x000042          0x6 FTP.o
 __c30_signature
                  0x000048          0x6 FTPlib.o
 __c30_signature
                  0x00004e          0x6 Hashes.o
 __c30_signature
                  0x000054          0x6 heap_2.o
 __c30_signature
                  0x00005a          0x6 Helpers.o
 __c30_signature
                  0x000060          0x6 HTTP2.o
 __c30_signature
                  0x000066          0x6 HWInit.o
 __c30_signature
                  0x00006c          0x6 HWlib.o
 __c30_signature
                  0x000072          0x6 ICMP.o
 __c30_signature
                  0x000078          0x6 INTlib.o
 __c30_signature
                  0x00007e          0x6 IP.o
 __c30_signature
                  0x000084          0x6 ISRs.o
 __c30_signature
                  0x00008a          0x6 list.o
 __c30_signature
                  0x000090          0x6 Main.o
 __c30_signature
                  0x000096          0x6 MPFS2.o
 __c30_signature
                  0x00009c          0x6 NBNS.o
 __c30_signature
                  0x0000a2          0x6 NETlib.o
 __c30_signature
                  0x0000a8          0x6 port.o
 __c30_signature
                  0x0000ae          0x6 queue.o
 __c30_signature
                  0x0000b4          0x6 Random.o
 __c30_signature
                  0x0000ba          0x6 Reboot.o
 __c30_signature
                  0x0000c0          0x6 Regs.o
 __c30_signature
                  0x0000c6          0x6 RTCClib.o
 __c30_signature
                  0x0000cc          0x6 SMTP.o
 __c30_signature
                  0x0000d2          0x6 SMTPlib.o
 __c30_signature
                  0x0000d8          0x6 SNTP.o
 __c30_signature
                  0x0000de          0x6 SPIFlash.o
 __c30_signature
                  0x0000e4          0x6 StackTsk.o
 __c30_signature
                  0x0000ea          0x6 taskFlyport.o
 __c30_signature
                  0x0000f0          0x6 tasks.o
 __c30_signature
                  0x0000f6          0x6 TCP.o
 __c30_signature
                  0x0000fc          0x6 TCPIP_Utils.o
 __c30_signature
                  0x000102          0x6 TCPlib.o
 __c30_signature
                  0x000108          0x6 Tick.o
 __c30_signature
                  0x00010e          0x6 UDP.o
 __c30_signature
                  0x000114          0x6 UDPlib.o
 __c30_signature
                  0x00011a          0x6 WFConnectionAlgorithm.o
 __c30_signature
                  0x000120          0x6 WFConnectionManager.o
 __c30_signature
                  0x000126          0x6 WFConnectionProfile.o
 __c30_signature
                  0x00012c          0x6 WFDataTxRx.o
 __c30_signature
                  0x000132          0x6 WFDebugStrings.o
 __c30_signature
                  0x000138          0x6 WFDriverCom.o
 __c30_signature
                  0x00013e          0x6 WFDriverCom_24G.o
 __c30_signature
                  0x000144          0x6 WFDriverRaw.o
 __c30_signature
                  0x00014a          0x6 WFDriverRaw_24G.o
 __c30_signature
                  0x000150          0x6 WFEventHandler.o
 __c30_signature
                  0x000156          0x6 WFInit.o
 __c30_signature
                  0x00015c          0x6 WFMac.o
 __c30_signature
                  0x000162          0x6 WFMac_24G.o
 __c30_signature
                  0x000168          0x6 WFMgmtMsg.o
 __c30_signature
                  0x00016e          0x6 WFMgmtMsg_24G.o
 __c30_signature
                  0x000174          0x6 WFParamMsg.o
 __c30_signature
                  0x00017a          0x6 WFParamMsg_24G.o
 __c30_signature
                  0x000180          0x6 WFPowerSave.o
 __c30_signature
                  0x000186          0x6 WFScan.o
 __c30_signature
                  0x00018c          0x6 WFTxPower.o
 __c30_signature
                  0x000192          0x6 WF_Config.o
 __c30_signature
                  0x000198          0x6 WF_Eint.o
 __c30_signature
                  0x00019e          0x6 WF_Events.o
 __c30_signature
                  0x0001a4          0x6 WF_Spi.o
 __c30_signature
                  0x0001aa          0x6 WF_Utils.o
 __c30_signature
                  0x0001b0          0x6 x_analog_in.o
 __c30_signature
                  0x0001b6          0x6 x_analog_temp.o
 __c30_signature
                  0x0001bc          0x6 x_compose.o
 __c30_signature
                  0x0001c2          0x6 x_digital_io.o
 __c30_signature
                  0x0001c8          0x6 x_groveboard.o
 __c30_signature
                  0x0001ce          0x6 x_grovelib.o
 __c30_signature
                  0x0001d4          0x6 x_httplib.o
 __c30_signature
                  0x0001da          0x6 x_i2c_devices.o
 __c30_signature
                  0x0001e0          0x6 x_input_capture.o
 __c30_signature
                  0x0001e6          0x6 x_rht03.o
 __c30_signature
                  0x0001ec          0x6 ZeroconfHelper.o
 __c30_signature
                  0x0001f2          0x6 ZeroconfLinkLocal.o
 __c30_signature
                  0x0001f8          0x6 ZeroconfMulticastDNS.o
 __c30_signature
                  0x0001fe          0x6 c:/program files/microchip/mplab c30/bin/bin/../../lib\libpic30-coff.a(crt0_standard.o)
 __c30_signature
                  0x000204          0x6 c:/program files/microchip/mplab c30/bin/bin/../../lib\libpic30-coff.a(c30_uart.o)
 __c30_signature
                  0x00020a          0x6 c:/program files/microchip/mplab c30/bin/bin/../../lib\libpic30-coff.a(flash_helper.o)
 __c30_signature
                  0x000210          0x6 c:/program files/microchip/mplab c30/bin/bin/../../lib\libpic30-coff.a(data_init_standard.o)
 __c30_signature
                  0x000216          0x6 c:/program files/microchip/mplab c30/bin/bin/../../lib\libc-coff.a(memset.o)
 __c30_signature
                  0x00021c          0x6 c:/program files/microchip/mplab c30/bin/bin/../../lib\libc-coff.a(strtok.o)
 __c30_signature
                  0x000222          0x6 c:/program files/microchip/mplab c30/bin/bin/../../lib\libc-coff.a(strcpy.o)
 __c30_signature
                  0x000228          0x6 c:/program files/microchip/mplab c30/bin/bin/../../lib\libc-coff.a(strlen.o)
 __c30_signature
                  0x00022e          0x6 c:/program files/microchip/mplab c30/bin/bin/../../lib\libc-coff.a(strcat.o)
 __c30_signature
                  0x000234          0x6 c:/program files/microchip/mplab c30/bin/bin/../../lib\libc-coff.a(xstoul.o)
 __c30_signature
                  0x00023a          0x6 c:/program files/microchip/mplab c30/bin/bin/../../lib\libc-coff.a(strcmp.o)
 __c30_signature
                  0x000240          0x6 c:/program files/microchip/mplab c30/bin/bin/../../lib\libc-coff.a(rand.o)
 __c30_signature
                  0x000246          0x6 c:/program files/microchip/mplab c30/bin/bin/../../lib\libc-coff.a(srand.o)
 __c30_signature
                  0x00024c          0x6 c:/program files/microchip/mplab c30/bin/bin/../../lib\libc-coff.a(memcmp.o)
 __c30_signature
                  0x000252          0x6 c:/program files/microchip/mplab c30/bin/bin/../../lib\libc-coff.a(memcpy.o)
 __c30_signature
                  0x000258          0x6 c:/program files/microchip/mplab c30/bin/bin/../../lib\libc-coff.a(strchr.o)
 __c30_signature
                  0x00025e          0x6 c:/program files/microchip/mplab c30/bin/bin/../../lib\libc-coff.a(strstr.o)
 __c30_signature
                  0x000264          0x6 c:/program files/microchip/mplab c30/bin/bin/../../lib\libc-coff.a(strncpy.o)
 __c30_signature
                  0x00026a          0x6 c:/program files/microchip/mplab c30/bin/bin/../../lib\libc-coff.a(free.o)
 __c30_signature
                  0x000270          0x6 c:/program files/microchip/mplab c30/bin/bin/../../lib\libc-coff.a(malloc.o)
 __c30_signature
                  0x000276          0x6 c:/program files/microchip/mplab c30/bin/bin/../../lib\libc-coff.a(sprintf.o)
 __c30_signature
                  0x00027c          0x6 c:/program files/microchip/mplab c30/bin/bin/../../lib\libc-coff.a(calloc.o)
 __c30_signature
                  0x000282          0x6 c:/program files/microchip/mplab c30/bin/bin/../../lib\libc-coff.a(strspn.o)
 __c30_signature
                  0x000288          0x6 c:/program files/microchip/mplab c30/bin/bin/../../lib\libc-coff.a(strcspn.o)
 __c30_signature
                  0x00028e          0x6 c:/program files/microchip/mplab c30/bin/bin/../../lib\libc-coff.a(memchr.o)
 __c30_signature
                  0x000294          0x6 c:/program files/microchip/mplab c30/bin/bin/../../lib\libc-coff.a(errno.o)
 __c30_signature
                  0x00029a          0x6 c:/program files/microchip/mplab c30/bin/bin/../../lib\libc-coff.a(xgetmem.o)
 __c30_signature
                  0x0002a0          0x6 c:/program files/microchip/mplab c30/bin/bin/../../lib\libc-coff.a(xprintf.o)
 __c30_signature
                  0x0002a6          0x6 c:/program files/microchip/mplab c30/bin/bin/../../lib\libc-coff.a(xvacopy.o)
 __c30_signature
                  0x0002ac          0x6 c:/program files/microchip/mplab c30/bin/bin/../../lib\libc-coff.a(xputtxt.o)
 __c30_signature
                  0x0002b2          0x6 c:/program files/microchip/mplab c30/bin/bin/../../lib\libc-coff.a(xputfld.o)
 __c30_signature
                  0x0002b8          0x6 c:/program files/microchip/mplab c30/bin/bin/../../lib\libc-coff.a(xlitob.o)
 __c30_signature
                  0x0002be          0x6 c:/program files/microchip/mplab c30/bin/bin/../../lib\libc-coff.a(xldtob.o)
 __c30_signature
                  0x0002c4          0x6 c:/program files/microchip/mplab c30/bin/bin/../../lib\libc-coff.a(xldunsca.o)
 __c30_signature
                  0x0002ca          0x6 c:/program files/microchip/mplab c30/bin/bin/../../lib\libc-coff.a(xldscale.o)
 __c30_signature
                  0x0002d0          0x6 c:/program files/microchip/mplab c30/bin/bin/../../lib\libc-coff.a(ldiv.o)
 __c30_signature
                  0x0002d6          0x6 c:/program files/microchip/mplab c30/bin/bin/../../lib\libc-coff.a(xgenld.o)
 __c30_signature
                  0x0002dc          0x6 c:/program files/microchip/mplab c30/bin/bin/../../lib\libc-coff.a(xdnorm.o)
 __c30_signature
                  0x0002e2          0x6 c:/program files/microchip/mplab c30/bin/bin/../../lib\libc-coff.a(div.o)
 __c30_signature
                  0x0002e8          0x6 c:/program files/microchip/mplab c30/bin/bin/../../lib\libm-coff.a(udivsi3.o)
 __c30_signature
                  0x0002ee          0x6 c:/program files/microchip/mplab c30/bin/bin/../../lib\libm-coff.a(divsf3.o)
 __c30_signature
                  0x0002f4          0x6 c:/program files/microchip/mplab c30/bin/bin/../../lib\libm-coff.a(fgtge.o)
 __c30_signature
                  0x0002fa          0x6 c:/program files/microchip/mplab c30/bin/bin/../../lib\libm-coff.a(fixunssfsi.o)
 __c30_signature
                  0x000300          0x6 c:/program files/microchip/mplab c30/bin/bin/../../lib\libm-coff.a(floatsisf.o)
 __c30_signature
                  0x000306          0x6 c:/program files/microchip/mplab c30/bin/bin/../../lib\libm-coff.a(addsf3.o)
 __c30_signature
                  0x00030c          0x6 c:/program files/microchip/mplab c30/bin/bin/../../lib\libm-coff.a(mulsf3.o)
 __c30_signature
                  0x000312          0x6 c:/program files/microchip/mplab c30/bin/bin/../../lib\libm-coff.a(divmoddi3.o)
 __c30_signature
                  0x000318          0x6 c:/program files/microchip/mplab c30/bin/bin/../../lib\libm-coff.a(muldi3.o)
 __c30_signature
                  0x00031e          0x6 c:/program files/microchip/mplab c30/bin/bin/../../lib\libm-coff.a(logf.o)
 __c30_signature
                  0x000324          0x6 c:/program files/microchip/mplab c30/bin/bin/../../lib\libm-coff.a(log10f.o)
 __c30_signature
                  0x00032a          0x6 c:/program files/microchip/mplab c30/bin/bin/../../lib\libm-coff.a(fixsfsi.o)
 __c30_signature
                  0x000330          0x6 c:/program files/microchip/mplab c30/bin/bin/../../lib\libm-coff.a(mulsi3.o)
 __c30_signature
                  0x000336          0x6 c:/program files/microchip/mplab c30/bin/bin/../../lib\libm-coff.a(extendsfdf.o)
 __c30_signature
                  0x00033c          0x6 c:/program files/microchip/mplab c30/bin/bin/../../lib\libm-coff.a(umodsi3.o)
 __c30_signature
                  0x000342          0x6 c:/program files/microchip/mplab c30/bin/bin/../../lib\libm-coff.a(divsi3.o)
 __c30_signature
                  0x000348          0x6 c:/program files/microchip/mplab c30/bin/bin/../../lib\libm-coff.a(deqltle.o)
 __c30_signature
                  0x00034e          0x6 c:/program files/microchip/mplab c30/bin/bin/../../lib\libm-coff.a(fixdfsi.o)
 __c30_signature
                  0x000354          0x6 c:/program files/microchip/mplab c30/bin/bin/../../lib\libm-coff.a(floatsidf.o)
 __c30_signature
                  0x00035a          0x6 c:/program files/microchip/mplab c30/bin/bin/../../lib\libm-coff.a(subdf3.o)
 __c30_signature
                  0x000360          0x6 c:/program files/microchip/mplab c30/bin/bin/../../lib\libm-coff.a(dgtge.o)
 __c30_signature
                  0x000366          0x6 c:/program files/microchip/mplab c30/bin/bin/../../lib\libm-coff.a(muldf3.o)
 __c30_signature
                  0x00036c          0x6 c:/program files/microchip/mplab c30/bin/bin/../../lib\libm-coff.a(divdf3.o)
 __c30_signature
                  0x000372          0x6 c:/program files/microchip/mplab c30/bin/bin/../../lib\libm-coff.a(funpack2.o)
 __c30_signature
                  0x000378          0x6 c:/program files/microchip/mplab c30/bin/bin/../../lib\libm-coff.a(futil.o)
 __c30_signature
                  0x00037e          0x6 c:/program files/microchip/mplab c30/bin/bin/../../lib\libm-coff.a(fpack.o)
 __c30_signature
                  0x000384          0x6 c:/program files/microchip/mplab c30/bin/bin/../../lib\libm-coff.a(fcompare.o)
 __c30_signature
                  0x00038a          0x6 c:/program files/microchip/mplab c30/bin/bin/../../lib\libm-coff.a(funpack.o)
 __c30_signature
                  0x000390          0x6 c:/program files/microchip/mplab c30/bin/bin/../../lib\libm-coff.a(umuldi3.o)
 __c30_signature
                  0x000396          0x6 c:/program files/microchip/mplab c30/bin/bin/../../lib\libm-coff.a(_frexpf.o)
 __c30_signature
                  0x00039c          0x6 c:/program files/microchip/mplab c30/bin/bin/../../lib\libm-coff.a(dcompare.o)
 __c30_signature
                  0x0003a2          0x6 c:/program files/microchip/mplab c30/bin/bin/../../lib\libm-coff.a(dunpack.o)
 __c30_signature
                  0x0003a8          0x6 c:/program files/microchip/mplab c30/bin/bin/../../lib\libm-coff.a(dunpack2.o)
 __c30_signature
                  0x0003ae          0x6 c:/program files/microchip/mplab c30/bin/bin/../../lib\libm-coff.a(floatdidf.o)
 __c30_signature
                  0x0003b4          0x6 c:/program files/microchip/mplab c30/bin/bin/../../lib\libm-coff.a(adddf3.o)
 __c30_signature
                  0x0003ba          0x6 c:/program files/microchip/mplab c30/bin/bin/../../lib\libm-coff.a(dpack.o)
 __c30_signature
                  0x0003c0          0x6 c:/program files/microchip/mplab c30/bin/bin/../../lib\libm-coff.a(dtype.o)
 __c30_signature
                  0x0003c6          0x6 c:/program files/microchip/mplab c30/bin/bin/../../lib\libm-coff.a(dpropagateNaN.o)
 __c30_signature
                  0x0003cc          0x6 c:/program files/microchip/mplab c30/bin/bin/../../lib\libpic30-coff.a(sbrk.o)
 __c30_signature
                  0x0003d2          0x6 c:/program files/microchip/mplab c30/bin/bin/../../lib\libpic30-coff.a(brk.o)

.bss                0x0800       0x1c06
 .bss               0x0800       0x1392 heap_2.o
 .bss               0x1b92        0x47e HWlib.o
                    0x2006                  TimerOn
 .bss               0x2010        0x3f6 Main.o
                    0x206e                  AppConfig
                    0x2118                  xIPAddress
                    0x217c                  xWord
                    0x217e                  xChar
                    0x2180                  xByte
                    0x2182                  xByte2
                    0x2183                  xByte3
                    0x2184                  xInt
                    0x2186                  xInt2
                    0x2188                  xNode
                    0x2192                  xQueue
                    0x2194                  BUFFER_UDP_LEN
                    0x2196                  udpBuffer
                    0x2198                  udpRxLenGlobal
                    0x219a                  udpSocket
                    0x219c                  xUDPPort
                    0x219e                  p_udp_data
                    0x21a0                  p_udp_wifiram
                    0x21a2                  xUDPRemoteHost
                    0x21a6                  udpWord
                    0x21a8                  udpInt
                    0x21aa                  udpByte
                    0x21ac                  UDPoverflowFlag
                    0x21ae                  NETConf
                    0x2302                  WFStatusold
                    0x2304                  xNet
                    0x2332                  udpRxLen
                    0x2334                  udpBuffer1
                    0x23fc                  tmp_len
                    0x23fe                  hTCPIPTask
                    0x2400                  hFlyTask
                    0x2402                  hTimerTask
                    0x2404                  xStatus

.data               0x2406        0x454
 .data              0x2406        0x2ea Regs.o
                    0x2406                  LATs
                    0x243a                  TRISs
                    0x246e                  PORTs
                    0x24a2                  CNPUs
                    0x24d6                  CNPDs
                    0x250a                  CNPos
                    0x253e                  IOPos
                    0x2572                  an
                    0x257c                  UMODEs
                    0x2584                  USTAs
                    0x258c                  UBRGs
                    0x2594                  UIFSs
                    0x259c                  UIECs
                    0x25a4                  UTXREGs
                    0x25ac                  URXREGs
                    0x25b4                  UTXIPos
                    0x25bc                  URXIPos
                    0x25c4                  AD1CFGL
                    0x25c6                  AD1CFGH
                    0x25c8                  AD1CONF1
                    0x25ca                  AD1CONF2
                    0x25cc                  AD1CONF3
                    0x25ce                  AD1CH
                    0x25d0                  AD1CSL
                    0x25d2                  OCCON1s
                    0x25e4                  OCCON2s
                    0x25f6                  OCRs
                    0x2608                  OCRSs
                    0x261a                  RPORs
                    0x264e                  RPFunc
                    0x2664                  RPIORPin
                    0x2698                  TCONs
                    0x26a2                  OCM
                    0x26b4                  RPIRs
                    0x26d2                  RPIRPos
 .data              0x26f0        0x16a WFDebugStrings.o
                    0x26f0                  connectionFailureStrings
                    0x2718                  connectionLostStrings
                    0x2724                  deauthDisssocReasonCodes
                    0x2756                  statusCodes
                    0x27b6                  wpsState
                    0x27d4                  wpsConfigErr
                    0x282a                  moduleName

.bss                0x285a        0x328
 .bss               0x285a        0x160 TCP.o
 .bss               0x29ba         0xcc UDP.o
                    0x29c0                  UDPSocketInfo
                    0x2a80                  activeUDPSocket
                    0x2a82                  UDPTxCount
                    0x2a84                  UDPRxCount
 .bss               0x2a86         0x88 c:/program files/microchip/mplab c30/bin/bin/../../lib\libc-coff.a(rand.o)
 .bss               0x2b0e         0x74 tasks.o

.data               0x2b82         0x92
 .data              0x2b82         0x4a c:/program files/microchip/mplab c30/bin/bin/../../lib\libc-coff.a(xstoul.o)
 .data              0x2bcc         0x48 c:/program files/microchip/mplab c30/bin/bin/../../lib\libc-coff.a(xldtob.o)

.bss                0x2c14         0xae
 .bss               0x2c14         0x40 Hashes.o
                    0x2c14                  lastBlock
 .bss               0x2c54         0x3a SMTP.o
                    0x2c76                  SMTPClient
 .bss               0x2c8e         0x34 Regs.o
                    0x2c8e                  IOMode

.dconst             0x2cc2         0x32
 .dconst            0x2cc2         0x32 c:/program files/microchip/mplab c30/bin/bin/../../lib\libc-coff.a(xldtob.o)

.data               0x2cf4         0x2a
 .data              0x2cf4         0x2a x_groveboard.o
                    0x2cf4                  g_d1
                    0x2cf8                  g_d2
                    0x2cfc                  g_dtype
                    0x2d02                  g_dshared
                    0x2d08                  g_SCK
                    0x2d09                  g_MISO
                    0x2d0a                  g_MOSI
                    0x2d0b                  g_SPI_CS
                    0x2d0c                  g_I2CSCL
                    0x2d0d                  g_I2CSDA
                    0x2d0e                  g_an
                    0x2d11                  g_atype
                    0x2d15                  g_ashared
                    0x2d1a                  GroveStarted
                    0x2d1c                  Board

.bss                0x2d1e         0x28
 .bss               0x2d1e         0x28 DHCP.o

.data               0x2d46         0x6e
 .data              0x2d46         0x28 Main.o
                    0x2d46                  ConnectionProfileID
                    0x2d48                  _WFStat
                    0x2d4a                  WFConnection
                    0x2d4c                  xTCPPort
                    0x2d4e                  xSocket
                    0x2d50                  xFrontEndStat
                    0x2d52                  xFrontEndStatRet
                    0x2d54                  xErr
                    0x2d56                  xBool
                    0x2d58                  WPAWrong
                    0x2d5a                  numUdpSocket
                    0x2d5c                  xUDPLocalPort
                    0x2d5e                  xUDPRemotePort
                    0x2d60                  activeUdpSocket
                    0x2d61                  callbackUdpSocket
                    0x2d62                  udpErr
                    0x2d64                  udpBool
                    0x2d66                  datadiscard
                    0x2d68                  UDPoverflow
                    0x2d6a                  xSemFrontEnd
                    0x2d6c                  xSemHW
 .data              0x2d6e         0x24 x_input_capture.o
                    0x2d6e                  RPICRs
                    0x2d7a                  ICCON1Rs
                    0x2d86                  ICCON2Rs
 .data              0x2d92         0x22 c:/program files/microchip/mplab c30/bin/bin/../../lib\libc-coff.a(xlitob.o)

.bss                0x2db4         0x72
 .bss               0x2db4         0x1a WFMac_24G.o
                    0x2dca                  g_rxBufferLength
                    0x2dcc                  WF_hibernate
 .bss               0x2dce         0x18 DNS.o
 .bss               0x2de6         0x16 ARP.o
 .bss               0x2dfc         0x16 WFDriverCom_24G.o
                    0x2e0e                  RawMoveState
 .bss               0x2e12         0x14 DHCPs.o
                    0x2e16                  DhcpIpPool

.data               0x2e26         0x12
 .data              0x2e26         0x12 c:/program files/microchip/mplab c30/bin/bin/../../lib\libc-coff.a(xprintf.o)

.bss                0x2e38         0x40
 .bss               0x2e38         0x10 StackTsk.o
                    0x2e3e                  remoteNode
 .bss               0x2e48          0xe SNTP.o
 .bss               0x2e56          0xc FTPlib.o
 .bss               0x2e62          0xc UDPlib.o
 .bss               0x2e6e          0xa Tick.o

.data               0x2e78         0x1a
 .data              0x2e78          0xa c:/program files/microchip/mplab c30/bin/bin/../../lib\libc-coff.a(rand.o)
                    0x2e78                  _Tls_setup__Randseed
                    0x2e7a                  _Randseed
                    0x2e7e                  _Tls_setup__Randinit
                    0x2e80                  _Randinit
 .data              0x2e82          0x8 StackTsk.o
                    0x2e82                  DHCPAssigned
                    0x2e84                  g_DhcpRenew
                    0x2e86                  g_DhcpRetryTimer
 .data              0x2e8a          0x8 WFDriverCom_24G.o
                    0x2e8a                  g_DhcpSuccessful
                    0x2e8c                  g_WiFiConnectionChanged
                    0x2e8e                  g_WiFiConnection
                    0x2e90                  g_dhcpInProgress

.bss                0x2e92          0x8
 .bss               0x2e92          0x8 WFPowerSave.o
                    0x2e98                  g_rxDtim

.dconst             0x2e9a          0x8
 .dconst            0x2e9a          0x8 c:/program files/microchip/mplab c30/bin/bin/../../lib\libc-coff.a(xprintf.o)

.data               0x2ea2          0x6
 .data              0x2ea2          0x6 DHCPs.o
                    0x2ea4                  bDHCPServerEnabled

.bss                0x2ea8         0x12
 .bss               0x2ea8          0x6 INTlib.o
                    0x2ea8                  isr_int2
                    0x2eaa                  isr_int3
                    0x2eac                  isr_int4
 .bss               0x2eae          0x6 SPIFlash.o
 .bss               0x2eb4          0x6 x_input_capture.o
                    0x2eb4                  icflag
                    0x2eb6                  icvalue

.data               0x2eba          0x6
 .data              0x2eba          0x6 c:/program files/microchip/mplab c30/bin/bin/../../lib\libc-coff.a(malloc.o)
                    0x2eba                  _Size_block
                    0x2ebc                  _Aldata

.bss                0x2ec0          0x4
 .bss               0x2ec0          0x4 Announce.o

.data               0x2ec4          0x8
 .data              0x2ec4          0x4 DNS.o
 .data              0x2ec8          0x4 Helpers.o

.bss                0x2ecc          0x8
 .bss               0x2ecc          0x4 IP.o
 .bss               0x2ed0          0x4 NBNS.o

.data               0x2ed4          0x8
 .data              0x2ed4          0x4 WFDriverRaw_24G.o
                    0x2ed4                  g_HostRAWDataPacketReceived
                    0x2ed6                  g_RawIndexPastEnd
 .data              0x2ed8          0x4 WFMac_24G.o
                    0x2ed8                  WFArpBroadcastIntervalSec

.bss                0x2edc          0x4
 .bss               0x2edc          0x4 WFMgmtMsg_24G.o

.data               0x2ee0          0x4
 .data              0x2ee0          0x4 c:/program files/microchip/mplab c30/bin/bin/../../lib\libc-coff.a(errno.o)
                    0x2ee0                  _Tls_setup_errno
                    0x2ee2                  errno

.bss                0x2ee4          0x2
 .bss               0x2ee4          0x2 ARPlib.o

.data               0x2ee6          0x2
 .data              0x2ee6          0x2 DHCP.o
                    0x2ee6                  DHCPClientInitializedOnce

.pbss               0x2ee8          0x2
 .pbss              0x2ee8          0x2 DNS.o

.data               0x2eea          0x6
 .data              0x2eea          0x2 FTPlib.o
 .data              0x2eec          0x2 heap_2.o
 .data              0x2eee          0x2 HWlib.o

.bss                0x2ef0          0x2
 .bss               0x2ef0          0x2 NETlib.o

.data               0x2ef2          0x4
 .data              0x2ef2          0x2 port.o
                    0x2ef2                  uxCriticalNesting
 .data              0x2ef4          0x2 SMTP.o

.bss                0x2ef6          0x2
 .bss               0x2ef6          0x2 SMTPlib.o

.data               0x2ef8          0x6
 .data              0x2ef8          0x2 SNTP.o
 .data              0x2efa          0x2 tasks.o
                    0x2efa                  pxCurrentTCB
 .data              0x2efc          0x2 TCP.o

.pbss               0x2efe          0x2
 .pbss              0x2efe          0x2 TCP.o

.bss                0x2f00          0x2
 .bss               0x2f00          0x2 TCPlib.o

.data               0x2f02          0x2
 .data              0x2f02          0x2 UDP.o

.pbss               0x2f04          0x2
 .pbss              0x2f04          0x2 UDP.o

.data               0x2f06          0x2
 .data              0x2f06          0x2 WFConnectionAlgorithm.o

.bss                0x2f08          0x4
 .bss               0x2f08          0x2 WFConnectionManager.o
 .bss               0x2f0a          0x2 WFDriverRaw_24G.o
                    0x2f0a                  RawWindowState

.data               0x2f0c          0x6
 .data              0x2f0c          0x2 WFMgmtMsg_24G.o
                    0x2f0c                  g_WaitingForMgmtResponse
 .data              0x2f0e          0x2 WFPowerSave.o
 .data              0x2f10          0x2 WF_Config.o
                    0x2f10                  WFNetworkFound

.bss                0x2f12          0x2
 .bss               0x2f12          0x2 WF_Config.o
                    0x2f12                  myRSSI

.data               0x2f14          0x2
 .data              0x2f14          0x2 WF_Events.o
                    0x2f14                  ScanCompleted

.bss                0x2f16          0x2
 .bss               0x2f16          0x2 WF_Spi.o

.data               0x2f18          0x6
 .data              0x2f18          0x2 x_analog_in.o
                    0x2f18                  An_i
 .data              0x2f1a          0x2 x_analog_temp.o
                    0x2f1a                  An_Temp
 .data              0x2f1c          0x2 x_digital_io.o
                    0x2f1c                  Dig_io

.bss                0x2f1e          0x2
 .bss               0x2f1e          0x2 x_grovelib.o
                    0x2f1e                  flag

.data               0x2f20          0x6
 .data              0x2f20          0x2 x_rht03.o
                    0x2f20                  RHT03
 .data              0x2f22          0x2 c:/program files/microchip/mplab c30/bin/bin/../../lib\libpic30-coff.a(c30_uart.o)
                    0x2f22                  __C30_UART
 .data              0x2f24          0x2 c:/program files/microchip/mplab c30/bin/bin/../../lib\libc-coff.a(strtok.o)

.bss                0x2f26          0x2
 .bss               0x2f26          0x2 c:/program files/microchip/mplab c30/bin/bin/../../lib\libc-coff.a(strtok.o)

.dconst             0x2f28          0x2
 .dconst            0x2f28          0x2 c:/program files/microchip/mplab c30/bin/bin/../../lib\libc-coff.a(strtok.o)

.data               0x2f2a          0x2
 .data              0x2f2a          0x2 c:/program files/microchip/mplab c30/bin/bin/../../lib\libc-coff.a(ldiv.o)

.dconst             0x2f2c          0x2
 .dconst            0x2f2c          0x2 c:/program files/microchip/mplab c30/bin/bin/../../lib\libc-coff.a(xgenld.o)

.data               0x2f2e          0x2
 .data              0x2f2e          0x2 c:/program files/microchip/mplab c30/bin/bin/../../lib\libc-coff.a(div.o)

.bss                0x2f30          0x2
 .bss               0x2f30          0x2 c:/program files/microchip/mplab c30/bin/bin/../../lib\libpic30-coff.a(brk.o)
                    0x2f30                  __curbrk

my_heap             0x2f32        0x500
 my_heap            0x2f32        0x500 x_heap.o

.const              0xa778       0x1aee load address 0x002778  
 .const             0xa778        0xeae WFDebugStrings.o
 .const             0xb626        0x2ea x_httplib.o
 .const             0xb910        0x1d4 FTPlib.o
 .const             0xbae4        0x140 Hashes.o
 .const             0xbc24         0xee x_compose.o
 .const             0xbd12         0xd8 WFMgmtMsg_24G.o
 .const             0xbdea         0xca ISRs.o
 .const             0xbeb4         0x86 SMTP.o
 .const             0xbf3a         0x80 taskFlyport.o
 .const             0xbfba         0x6c WF_Events.o
 .const             0xc026         0x68 Main.o
 .const             0xc08e         0x46 NETlib.o
 .const             0xc0d4         0x46 WFDriverRaw_24G.o
                    0xc110                  g_RawAccessOutOfBoundsMask
 .const             0xc11a         0x2a TCP.o
                    0xc11a                  TCPSocketInitializer
 .const             0xc144         0x20 port.o
 .const             0xc164         0x20 TCPIP_Utils.o
 .const             0xc184         0x1e WF_Utils.o
 .const             0xc1a2         0x1c Announce.o
 .const             0xc1be         0x1a DHCP.o
 .const             0xc1d8         0x16 x_input_capture.o
                    0xc1d8                  ICPos
 .const             0xc1ee          0xe Helpers.o
 .const             0xc1fc          0xe SNTP.o
 .const             0xc20a          0xe x_analog_in.o
 .const             0xc218          0xe x_analog_temp.o
 .const             0xc226          0xe x_digital_io.o
 .const             0xc234          0xe x_rht03.o
 .const             0xc242          0xc x_groveboard.o
 .const             0xc24e          0xa TCPlib.o
 .const             0xc258          0x6 tasks.o
 .const             0xc25e          0x6 WFInit.o
 .const             0xc264          0x2 heap_2.o

.text             0x004266       0xc698
 .text            0x004266       0x2400 TCP.o
                  0x004314                  TCPInit
                  0x0043ea                  TCPOpen
                  0x00453e                  TCPWasReset
                  0x004572                  TCPIsConnected
                  0x00459a                  TCPDisconnect
                  0x00463e                  TCPClose
                  0x00465a                  TCPGetRemoteInfo
                  0x004686                  TCPFlush
                  0x0046a8                  TCPIsPutReady
                  0x0046fe                  TCPPut
                  0x00479e                  TCPPutArray
                  0x004880                  TCPPutString
                  0x00489e                  TCPGetTxFIFOFull
                  0x0048cc                  TCPDiscard
                  0x0048ea                  TCPIsGetReady
                  0x004928                  TCPGet
                  0x00499a                  TCPGetArray
                  0x004a5e                  TCPGetRxFIFOFree
                  0x004a8a                  TCPPeekArray
                  0x004b34                  TCPPeek
                  0x004b4c                  TCPFindArrayEx
                  0x004dd6                  TCPFindEx
                  0x004df4                  TCPTick
                  0x005284                  TCPProcess
                  0x00644e                  TCPAdjustFIFOSize
 .text            0x006666       0x15c4 HWlib.o
                  0x006666                  _dbgwrite
                  0x006674                  ADCInit
                  0x00669c                  _ADC1Interrupt
                  0x0066b0                  ADCVal
                  0x0066d4                  IOPut
                  0x0067f0                  IOInit
                  0x006c5e                  IOGet
                  0x006cda                  IOButtonState
                  0x006d98                  PowerLed
                  0x006dd8                  UARTInit
                  0x006eca                  UARTOn
                  0x006fa0                  UARTOff
                  0x00702e                  UARTRxInt
                  0x007122                  UARTFlush
                  0x00714e                  UARTBufferSize
                  0x0071d4                  UARTRead
                  0x00728a                  UARTWrite
                  0x007322                  UARTWriteCh
                  0x007398                  PWMInit
                  0x007610                  PWMOn
                  0x00774c                  PWMDuty
                  0x0077c2                  PWMOff
                  0x0077da                  I2CInit
                  0x0077f6                  I2CStart
                  0x007838                  I2CRestart
                  0x00787a                  I2CStop
                  0x0078bc                  I2CGetDevAck
                  0x0078fa                  I2CTimeout
                  0x00790a                  I2CAddrSizeSet
                  0x007930                  I2CAddrSizeGet
                  0x00793c                  I2CWrite
                  0x0079be                  I2CRead
                  0x007a64                  I2CReadReg
                  0x007ac8                  I2CReadMulti
                  0x007b82                  I2CWriteReg
                  0x007bc8                  I2CWriteMulti
 .text            0x007c2a        0xfb2 SMTP.o
                  0x007c2a                  SMTPBeginUsage
                  0x007c8a                  SMTPEndUsage
                  0x007ce4                  SMTPTask
                  0x0088fc                  SMTPSendMail
                  0x00890c                  SMTPIsBusy
                  0x008922                  SMTPIsPutReady
                  0x008940                  SMTPPut
                  0x0089e4                  SMTPPutArray
                  0x008a20                  SMTPPutString
                  0x008a56                  SMTPFlush
                  0x008a64                  SMTPPutDone
 .text            0x008bdc        0xeaa FTPlib.o
                  0x008bdc                  FTPClientOpen
                  0x008bf4                  FTPRead
                  0x008c0a                  FTPWrite
                  0x008c20                  FTPClose
                  0x008c32                  FTPisConn
                  0x008c40                  FTPRxLen
                  0x008c4e                  FTPClientPasv
                  0x008e12                  FTPSendCmd
                  0x008eb8                  FTPConnect
                  0x009124                  FTPFileCheck
                  0x0091ba                  FTPFileSize
                  0x009264                  FTPStore
                  0x00927a                  FTPAppend
                  0x009462                  FTPStreamOpen
                  0x0095e8                  FTPStreamWrite
                  0x0096ba                  FTPStreamRead
                  0x00982a                  FTPStreamClose
                  0x00984a                  FTPStreamStat
                  0x009854                  FTPAnswer
                  0x0098b0                  FTPRxFlush
                  0x00996c                  FTPRxRead
 .text            0x009a86        0xb96 tasks.o
                  0x009a86                  xTaskGenericCreate
                  0x009b7c                  vTaskDelete
                  0x009be8                  vTaskDelayUntil
                  0x009c80                  vTaskDelay
                  0x009cdc                  vTaskPrioritySet
                  0x009db4                  vTaskSuspend
                  0x009e0e                  xTaskIsTaskSuspended
                  0x009e40                  vTaskResume
                  0x009ea2                  xTaskResumeFromISR
                  0x009f0c                  vTaskStartScheduler
                  0x009f40                  vTaskEndScheduler
                  0x009f56                  vTaskSuspendAll
                  0x009f62                  xTaskResumeAll
                  0x00a024                  xTaskGetTickCount
                  0x00a038                  uxTaskGetNumberOfTasks
                  0x00a040                  vTaskIncrementTick
                  0x00a0dc                  vTaskCleanUpResources
                  0x00a206                  vTaskSwitchContext
                  0x00a260                  vTaskPlaceOnEventList
                  0x00a2b6                  xTaskRemoveFromEventList
                  0x00a338                  vTaskSetTimeOutState
                  0x00a34c                  xTaskCheckForTimeOut
                  0x00a3b8                  vTaskMissedYield
                  0x00a3c2                  tasks.o:_prvIdleTask
                  0x00a544                  xTaskGetCurrentTaskHandle
                  0x00a550                  vTaskPriorityInherit
                  0x00a5c2                  vTaskPriorityDisinherit
 .text            0x00a61c        0xb0c NETlib.o
                  0x00a61c                  NETCustomSave
                  0x00a6fa                  NETCustomDelete
                  0x00a748                  NETCustomExist
                  0x00a776                  NETCustomLoad
                  0x00a80e                  NETSetParam
                  0x00a9bc                  WFGeneric
                  0x00aa52                  WFConnect
                  0x00aaf0                  WFDisconnect
                  0x00ab10                  WFScan
                  0x00ab2c                  RSSIUpdate
                  0x00ab56                  cRSSIUpdate
                  0x00abb4                  RSSIValue
                  0x00abc0                  RSSIStatus
                  0x00abe2                  WFScanList
                  0x00acb6                  WFStopConnecting
                  0x00ad4e                  WFSetChannel
                  0x00adb6                  WFSetSecurity
                  0x00ae02                  WFHibernate
                  0x00ae2a                  WFSleep
                  0x00ae5e                  WFOn
                  0x00ae8c                  WFPsPollEnable
                  0x00af42                  cWFDisconnect
                  0x00af62                  cWFScan
                  0x00afee                  cWFScanList
                  0x00b0ba                  WFGetStat
                  0x00b0c2                  cWFStopConnecting
                  0x00b0fa                  cWFConnect
                  0x00b10e                  cWFPsPollDisable
                  0x00b11a                  cWFPsPollEnable
 .text            0x00b128        0xada DHCPs.o
                  0x00b128                  DHCPServerInit
                  0x00b14a                  DHCPServerSMInit
                  0x00b154                  DHCPServerTask
                  0x00bbca                  DHCPServer_Disable
                  0x00bbf4                  DHCPServer_Enable
 .text            0x00bc02        0xa94 DHCP.o
                  0x00bc02                  DHCPInit
                  0x00bc52                  DHCPDisable
                  0x00bc74                  DHCPEnable
                  0x00bc8c                  DHCPIsEnabled
                  0x00bca4                  DHCPIsBound
                  0x00bcb2                  DHCPStateChanged
                  0x00bcd4                  DHCPIsServerDetected
                  0x00bce4                  DHCPTempIPAddr
                  0x00bd2a                  DHCPTask
 .text            0x00c696        0xa8e Helpers.o
                  0x00c696                  LFSRSeedRand
                  0x00c6d6                  LFSRRand
                  0x00c744                  GenerateRandomDWORD
                  0x00c882                  StringToIPAddress
                  0x00ca0a                  IPAddressToString
                  0x00ca4c                  Base64Decode
                  0x00cb8a                  Base64Encode
                  0x00cce6                  uitoa
                  0x00cd64                  ultoa
                  0x00ce14                  hexatob
                  0x00ce8a                  btohexa_high
                  0x00ceb2                  btohexa_low
                  0x00ced8                  stricmppgm2ram
                  0x00cf70                  swaps
                  0x00cf8a                  swapl
                  0x00cfe8                  CalcIPChecksum
                  0x00d05c                  strupr
                  0x00d096                  FormatNetBIOSName
                  0x00d0de                  strnchr
 .text            0x00d124        0x8a6 DNS.o
                  0x00d124                  DNSInit
                  0x00d138                  DNSBeginUsage
                  0x00d15e                  DNSEndUsage
                  0x00d194                  DNSResolve
                  0x00d1d6                  DNSIsResolved
 .text            0x00d9ca        0x874 TCPlib.o
                  0x00d9ca                  TCPGenericOpen
                  0x00dabe                  cTCPGenericOpen
                  0x00dae8                  TCPGenericClose
                  0x00db88                  cTCPGenericClose
                  0x00db98                  TCPServerDetach
                  0x00dc38                  cTCPServerDetach
                  0x00dc48                  TCPClientOpen
                  0x00dc5e                  TCPServerOpen
                  0x00dc72                  TCPRead
                  0x00dd1e                  TCPpRead
                  0x00ddd0                  cTCPpRead
                  0x00de1a                  cTCPRead
                  0x00de3c                  TCPWrite
                  0x00defa                  cTCPWrite
                  0x00df1a                  TCPRemote
                  0x00dfe0                  cTCPRemote
                  0x00dffc                  TCPClientClose
                  0x00e008                  TCPServerClose
                  0x00e014                  TCPisConn
                  0x00e0c2                  cTCPisConn
                  0x00e0d4                  TCPRxFlush
                  0x00e174                  cTCPRxFlush
                  0x00e184                  TCPRxLen
                  0x00e22c                  cTCPRxLen
 .text            0x00e23e        0x86c x_httplib.o
                  0x00e23e                  get_http_request
                  0x00e618                  create_http_socket
                  0x00e6bc                  do_http_request
                  0x00e6f8                  do_http_request_header
                  0x00e732                  http_get_response
                  0x00e7a2                  do_http_request_and_get_response
                  0x00e7b6                  close_socket
                  0x00e7dc                  get_header_from_response
                  0x00e86a                  create_large_post
                  0x00e9d6                  end_http_post_request
                  0x00e9e4                  create_chunked_post
                  0x00ea4c                  get_chunked_text
                  0x00ea9c                  end_chunked_request
 .text            0x00eaaa        0x830 WFMac_24G.o
                  0x00eaaa                  GetReadPtrRawWindow
                  0x00ebd0                  WFPeriodicGratuitousArp
                  0x00ec58                  RetrieveBinaryKey
                  0x00ec92                  MACProcess
                  0x00ecbc                  WFGetTCBSize
                  0x00ecc4                  MACInit
                  0x00ecce                  RawInit
                  0x00ed0e                  MACIsLinked
                  0x00ed18                  MACIsTxReady
                  0x00ed36                  RawGetMgmtRxBuffer
                  0x00ed4a                  MACDiscardRx
                  0x00ed5c                  MACGetFreeRxSize
                  0x00edd2                  MACGetHeader
                  0x00eeae                  MACPutHeader
                  0x00ef0a                  MACPutGeneralHeader
                  0x00ef58                  MACFlush
                  0x00ef7a                  MACSetReadPtrInRx
                  0x00ef8a                  MACSetWritePtr
                  0x00ef9e                  MACSetReadPtr
                  0x00efb2                  MACCalcRxChecksum
                  0x00efda                  MACMemCopyAsync
                  0x00f202                  MACIsMemCopyDone
                  0x00f20a                  MACGet
                  0x00f228                  MACGetArray
                  0x00f26c                  MACPut
                  0x00f28c                  MACPutArray
                  0x00f2ac                  MACPowerDown
                  0x00f2b2                  MACPowerUp
                  0x00f2b8                  CalcIPBufferChecksum
 .text            0x00f2da        0x800 UDPlib.o
                  0x00f2da                  UDPGenericOpen
                  0x00f3a2                  cUDPGenericOpen
                  0x00f442                  UDPLocalPort
                  0x00f45a                  UDPServerOpen
                  0x00f46e                  UDPClientOpen
                  0x00f496                  UDPBroadcastOpen
                  0x00f4aa                  UDPGenericClose
                  0x00f53a                  cUDPGenericClose
                  0x00f56e                  UDPServerClose
                  0x00f57c                  UDPClientClose
                  0x00f58a                  UDPRxLen
                  0x00f59e                  UDPRxFlush
                  0x00f5ee                  UDPRxOver
                  0x00f620                  UDPRead
                  0x00f74e                  UDPpRead
                  0x00f83e                  UDPWrite
                  0x00f8ea                  cUDPWrite
                  0x00f926                  UDPMultiOn
                  0x00f9d0                  cUDPMultiOn
                  0x00fa78                  UDPMultiOpen
 .text            0x00fada        0x784 UDP.o
                  0x00fada                  UDPInit
                  0x00fafc                  UDPOpenEx
                  0x00fc1c                  UDPTask
                  0x00fe02                  UDPIsOpened
                  0x00fe24                  UDPClose
                  0x00fe5c                  UDPSetTxBuffer
                  0x00fe70                  UDPSetRxBuffer
                  0x00fe84                  UDPIsPutReady
                  0x00febc                  UDPPut
                  0x00fef0                  UDPPutArray
                  0x00ff28                  UDPPutString
                  0x00ff3e                  UDPFlush
                  0x00ff9e                  UDPIsGetReady
                  0x00ffda                  UDPGet
                  0x010012                  UDPGetArray
                  0x01005e                  UDPDiscard
                  0x010086                  UDPProcess
 .text            0x01025e        0x6a0 SPIFlash.o
                  0x01025e                  SPIFlashInit
                  0x01037c                  SPIFlashReadArray
                  0x01046e                  SPIFlashBeginWrite
                  0x01047c                  SPIFlashWrite
                  0x01059a                  SPIFlashWriteArray
                  0x0107dc                  SPIFlashEraseSector

.dinit            0x0108fe        0x64a
 .dinit           0x0108fe        0x64a data_init

.text             0x010f48       0x7462
 .text            0x010f48        0x638 Main.o
                  0x010f48                  CmdCheck
                  0x011288                  main
                  0x0112dc                  TCPIPTask
 .text            0x011580        0x632 WFDriverCom_24G.o
                  0x011580                  WiFiTask
                  0x011604                  WFProcess
                  0x011636                  SignalDHCPSuccessful
                  0x011644                  SetDhcpProgressState
                  0x01165c                  SignalWiFiConnectionChanged
                  0x01170a                  Read8BitWFRegister
                  0x011734                  Write8BitWFRegister
                  0x01175c                  Read16BitWFRegister
                  0x011790                  Write16BitWFRegister
                  0x0117c4                  WriteWFArray
                  0x0117f4                  ReadWFArray
                  0x011938                  WFEintHandler
                  0x0119e2                  ReenablePowerSaveMode
                  0x0119ec                  WFHardwareInit
 .text            0x011bb2        0x628 WFDebugStrings.o
                  0x011bb2                  WF_OutputConnectionContext
                  0x011c44                  WF_OutputConnectionDebugMsg
                  0x011e8c                  WF_OutputConnectionInfo
                  0x01211a                  WF_AssertionFailed
                  0x01218a                  WF_DisplayModuleAssertInfo
 .text            0x0121da        0x610 queue.o
                  0x0121da                  xQueueCreate
                  0x01227e                  xQueueCreateMutex
                  0x0122e2                  xQueueGenericSend
                  0x0123c6                  xQueueGenericSendFromISR
                  0x012426                  xQueueGenericReceive
                  0x012568                  xQueueReceiveFromISR
                  0x0125ca                  uxQueueMessagesWaiting
                  0x0125e2                  uxQueueMessagesWaitingFromISR
                  0x0125f2                  vQueueDelete
                  0x01278c                  xQueueIsQueueEmptyFromISR
                  0x0127cc                  xQueueIsQueueFullFromISR
 .text            0x0127ea        0x4de Hashes.o
                  0x0127ea                  HashAddData
                  0x012806                  MD5Initialize
                  0x012842                  MD5AddData
                  0x012b44                  MD5Calculate
 .text            0x012cc8        0x4b6 WFParamMsg_24G.o
                  0x012cc8                  WFEnableMRF24WB0MMode
                  0x012cda                  WFEnableDebugPrint
                  0x012cea                  WF_SetLinkDownThreshold
                  0x012cfa                  WF_SetTxMode
                  0x012d0a                  WF_GetTxMode
                  0x012d1a                  WFEnableBroadcastProbeResponse
                  0x012d2c                  WF_GetDeviceInfo
                  0x012d82                  WF_SetMacAddress
                  0x012d92                  WF_GetMacAddress
                  0x012da2                  WF_MulticastSetConfig
                  0x012e4e                  WF_MulticastGetConfig
                  0x012eb4                  WF_SetTxDataConfirm
                  0x012ec4                  WF_GetTxDataConfirm
                  0x012ed4                  WF_SetRegionalDomain
                  0x012ee4                  WF_GetRegionalDomain
                  0x012ef4                  WF_SetRtsThreshold
                  0x012f1e                  WF_YieldPassphrase2Host
                  0x012f30                  WF_SetPSK
                  0x012f40                  WF_GetRtsThreshold
                  0x012f5e                  WF_SetMultiCastFilter
                  0x012fd4                  WF_EnableSWMultiCastFilter
                  0x012fe6                  WF_GetMacStats
                  0x01311a                  SendSetParamMsg
                  0x01314a                  SendGetParamMsg
 .text            0x01317e        0x4b2 x_input_capture.o
                  0x01317e                  _IC1Interrupt
                  0x0131b8                  _IC2Interrupt
                  0x0131d2                  _IC3Interrupt
                  0x0131fa                  _IC4Interrupt
                  0x013214                  _IC5Interrupt
                  0x01323c                  _IC6Interrupt
                  0x013256                  IOInit_
                  0x0132fe                  ICInit
                  0x013398                  ICOn
                  0x01346a                  ICOff
                  0x0134d8                  OneWireDecode
 .text            0x013630        0x49a WFDriverRaw_24G.o
                  0x013630                  RawCalculateChecksum
                  0x01364c                  AllocateMgmtTxBuffer
                  0x01369e                  DeallocateMgmtRxBuffer
                  0x0136ae                  AllocateDataTxBuffer
                  0x01370a                  SendRAWDataFrame
                  0x013734                  SendRAWManagementFrame
                  0x013746                  DeallocateDataRxBuffer
                  0x013770                  RawMountRxBuffer
                  0x0137a0                  RawToRawCopy
                  0x0137ce                  PushRawWindow
                  0x0137e0                  PopRawWindow
                  0x0137f8                  ScratchMount
                  0x01381c                  ScratchUnmount
                  0x01382e                  RawRead
                  0x01384a                  RawWrite
                  0x0138e8                  RawSetIndex
                  0x013974                  RawGetIndex
                  0x013990                  RawGetByte
                  0x0139cc                  RawSetByte
 .text            0x013aca        0x48a WFConnectionAlgorithm.o
                  0x013aca                  WF_CASetElements
                  0x013b82                  WF_CASetElementsN
                  0x013bb6                  WF_CAGetElements
                  0x013c00                  WF_CASetScanType
                  0x013c10                  WF_CAGetScanType
                  0x013c22                  WF_CASetMinChannelTime
                  0x013c3c                  WF_CAGetMinChannelTime
                  0x013c5c                  WF_CASetMaxChannelTime
                  0x013c76                  WF_CAGetMaxChannelTime
                  0x013c96                  WF_CASetProbeDelay
                  0x013cb0                  WF_CAGetProbeDelay
                  0x013cd0                  WF_CASetScanCount
                  0x013ce0                  WF_CAGetScanCount
                  0x013cf2                  WF_CASetRssi
                  0x013d02                  WF_CAGetRssi
                  0x013d14                  WF_CASetListRetryCount
                  0x013d24                  WF_CAGetListRetryCount
                  0x013d36                  WF_CASetEventNotificationAction
                  0x013d42                  WF_CAGetEventNotificationAction
                  0x013d52                  WF_CASetBeaconTimeoutAction
                  0x013d62                  WF_CAGetBeaconTimeoutAction
                  0x013d74                  WF_CASetDeauthAction
                  0x013d84                  WF_CAGetDeauthAction
                  0x013d96                  WF_CASetChannelList
                  0x013da8                  WF_CAGetChannelList
                  0x013de4                  WF_CASetListenInterval
                  0x013dfe                  WF_CASetDtimInterval
                  0x013e18                  WF_CAGetListenInterval
                  0x013e38                  WF_CASetBeaconPeriod
                  0x013e52                  WF_CAGetBeaconPeriod
                  0x013e72                  WF_CAGetDtimInterval
                  0x013e92                  WF_CASetBeaconTimeout
                  0x013ea2                  WF_CAGetBeaconTimeout
                  0x013ec0                  GetEventNotificationMask
                  0x013f42                  WF_DisableModuleConnectionManager
 .text            0x013f54        0x46e ARP.o
                  0x013f54                  ARPSendPkt
                  0x014018                  ARPInit
                  0x014072                  ARPProcess
                  0x01418a                  ARPResolve
                  0x01426e                  ARPIsResolved
                  0x014390                  SwapARPPacket
 .text            0x0143c2        0x46a StackTsk.o
                  0x0143c2                  StackInit
                  0x01442c                  StackTask
                  0x014804                  StackApplications
                  0x01481e                  RenewDhcp
 .text            0x01482c        0x43c x_groveboard.o
                  0x01482c                  x_groveboard.o:_Board_ctor
                  0x0148ae                  attachSensorToI2CBus
                  0x014960                  attachSensorToDigioBus
                  0x014a82                  attachSensorToAnBus
                  0x014b4a                  attachSensorToUartBus
 .text            0x014c68        0x3e4 x_rht03.o
                  0x014cc0                  x_rht03.o:_RHT03_ctor
                  0x014cf2                  x_rht03.o:_RHT03_dtor
                  0x014d18                  x_rht03.o:_RHT03_attach
                  0x014d3c                  x_rht03.o:_RHT03_configure
                  0x014d78                  x_rht03.o:_RHT03_set
                  0x015006                  x_rht03.o:_RHT03_get
 .text            0x01504c        0x3c6 NBNS.o
                  0x01504c                  NBNSInit
                  0x015056                  NBNSTask
 .text            0x015412        0x3b2 SMTPlib.o
                  0x015412                  GenericSMTP
                  0x0154ba                  SMTPStart
                  0x0154c4                  cSMTPStart
                  0x0154d2                  SMTPSetServer
                  0x015572                  cSMTPSetServer
                  0x0155be                  SMTPSetMsg
                  0x01565e                  cSMTPSetMsg
                  0x0156ba                  SMTPSend
                  0x0156c4                  cSMTPSend
                  0x0156d4                  SMTPBusy
                  0x0156de                  cSMTPBusy
                  0x0156ec                  SMTPStop
                  0x0156f6                  cSMTPStop
                  0x015710                  SMTPReport
                  0x0157b6                  cSMTPReport
 .text            0x0157c4        0x3a2 WFConnectionProfile.o
                  0x0157c4                  WF_CPCreate
                  0x0157f2                  WF_CPDelete
                  0x015816                  WF_CPGetIds
                  0x01583e                  WF_CPSetElements
                  0x015864                  WF_CPGetElements
                  0x01587a                  WF_CPSetSsidType
                  0x01588e                  WF_CPGetSsidType
                  0x0158a4                  WF_CPSetSsid
                  0x0158ca                  WF_CPGetSsid
                  0x01590a                  WF_CPSetBssid
                  0x01591e                  WF_CPGetBssid
                  0x015934                  WF_CPSetNetworkType
                  0x015948                  WF_CPGetNetworkType
                  0x01595e                  WF_CPSetWepKeyType
                  0x015972                  WF_CPGetWepKeyType
                  0x015988                  WF_CPGetWPSCredentials
                  0x01599e                  WF_CPUpdatePMK
                  0x0159b2                  WF_CPSetSecurity
                  0x015a2a                  WF_CPGetSecurity
                  0x015a94                  WF_CPSetDefaultWepKeyIndex
                  0x015aa8                  WF_CPGetDefaultWepKeyIndex
                  0x015abe                  WF_CPSetAdHocBehavior
                  0x015ad2                  WF_CPGetAdHocBehavior
 .text            0x015b66        0x260 TCPIP_Utils.o
                  0x015b66                  DisplayIPValue
                  0x015ba0                  InitAppConfig
 .text            0x015dc6        0x252 WFEventHandler.o
                  0x015dc6                  WFProcessMgmtIndicateMsg
 .text            0x016018        0x232 x_grovelib.o
                  0x016018                  new
                  0x016042                  delete_
                  0x016074                  delet_
                  0x016082                  attachToBoard
                  0x0160ce                  configure
                  0x01610a                  set
                  0x016146                  get
                  0x016196                  readError
 .text            0x01624a        0x230 SNTP.o
                  0x01624a                  SNTPInit
                  0x01625a                  SNTPClient
                  0x016422                  SNTPGetUTCSeconds
 .text            0x01647a        0x200 IP.o
                  0x01647a                  IPGetHeader
                  0x01658c                  IPPutHeader
                  0x016634                  IPSetRxBuffer
 .text            0x01667a        0x1e2 x_digital_io.o
                  0x01667a                  x_digital_io.o:_Dig_io_ctor
                  0x016714                  x_digital_io.o:_Dig_io_dtor
                  0x016752                  x_digital_io.o:_Dig_io_attach
                  0x016792                  x_digital_io.o:_Dig_io_set_dig_io
                  0x016836                  x_digital_io.o:_Dig_io_get_dig_io
 .text            0x01685c        0x1ca ISRs.o
                  0x01685c                  _U1RXInterrupt
                  0x01687c                  _U2RXInterrupt
                  0x01689c                  _U3RXInterrupt
                  0x0168bc                  _U4RXInterrupt
                  0x0168dc                  _DefaultInterrupt
                  0x016906                  _OscillatorFail
                  0x016930                  _AddressError
                  0x01695a                  _StackError
                  0x016984                  _MathError
                  0x0169ae                  _INT2Interrupt
                  0x0169d6                  _INT3Interrupt
                  0x0169fe                  _INT4Interrupt
 .text            0x016a26        0x1be WFMgmtMsg_24G.o
                  0x016a26                  SendMgmtMsg
                  0x016aac                  SignalMgmtConfirmReceivedEvent
                  0x016ab6                  WaitForMgmtResponse
                  0x016b56                  WaitForMgmtResponseAndReadData
                  0x016bb8                  WFSetFuncState
 .text            0x016be4        0x1ba INTlib.o
                  0x016be4                  nothigToDo
                  0x016bea                  INTDetach
                  0x016c1a                  INTAttach
                  0x016c4c                  INTInit
                  0x016ce4                  INTPriority
                  0x016d44                  INTEnable
                  0x016d74                  INTDisable
 .text            0x016d9e        0x188 Announce.o
                  0x016d9e                  AnnounceInit
                  0x016da8                  AnnounceIP
                  0x016e34                  DiscoveryTask
 .text            0x016f26        0x176 heap_2.o
                  0x016f26                  pvPortMalloc
                  0x017032                  vPortFree
                  0x01708e                  xPortGetFreeHeapSize
                  0x017096                  vPortInitialiseBlocks
 .text            0x01709c        0x16a WFPowerSave.o
                  0x01709c                  WFConfigureLowPowerMode
                  0x0170dc                  WF_PsPollEnable
                  0x01711e                  isSleepNeeded
                  0x017126                  ClearSleepNeeded
                  0x017130                  SetSleepNeeded
                  0x01713a                  SetAppPowerSaveMode
                  0x017146                  GetAppPowerSaveMode
                  0x01714e                  WF_PsPollDisable
                  0x017170                  WF_GetPowerSaveState
                  0x017180                  WFisPsPollEnabled
                  0x0171a2                  WFIsPsPollActive
                  0x0171aa                  EnsureWFisAwake
                  0x0171cc                  WF_HibernateEnable
                  0x0171fa                  SetPowerSaveState
 .text            0x017206        0x148 port.o
                  0x017206                  pxPortInitialiseStack
                  0x017290                  xPortStartScheduler
                  0x0172be                  vPortEndScheduler
                  0x0172f2                  vPortEnterCritical
                  0x017306                  vPortExitCritical
                  0x017320                  _T5Interrupt
 .text            0x01734e        0x140 WFConnectionManager.o
                  0x01734e                  WF_CMConnect
                  0x01739e                  WF_CMDisconnect
                  0x0173d6                  WF_CMGetConnectionState
                  0x01742c                  WFisConnected
                  0x017434                  SetLogicalConnectionState
                  0x017440                  WF_CMCheckConnectionState
                  0x01747c                  WF_CMGetConnectContext
 .text            0x01748e        0x12e Tick.o
                  0x01748e                  TickInit
                  0x017512                  TickGet
                  0x01751e                  TickGetDiv256
                  0x01754e                  TickGetDiv64K
                  0x01757e                  TickConvertToMilliseconds
                  0x0175a4                  _T1Interrupt
 .text            0x0175bc        0x128 list.o
                  0x0175bc                  vListInitialise
                  0x0175ee                  vListInitialiseItem
                  0x0175fc                  vListInsertEnd
                  0x017640                  vListInsert
                  0x0176a0                  vListRemove
 .text            0x0176e4        0x11c x_analog_temp.o
                  0x0176e4                  x_analog_temp.o:_An_Temp_ctor
                  0x0176fa                  x_analog_temp.o:_An_Temp_dtor
                  0x017720                  x_analog_temp.o:_An_Temp_attach
                  0x017742                  x_analog_temp.o:_An_Temp_get
 .text            0x017800        0x110 Delay.o
                  0x017800                  DelayMs
                  0x01782c                  Delay10us
 .text            0x017910        0x108 ARPlib.o
                  0x017910                  ARPResolveMAC
                  0x0179cc                  cARPResolveMAC
 .text            0x017a18        0x106 HWInit.o
                  0x017a18                  HWInit
 .text            0x017b1e         0xf4 WF_Config.o
                  0x017b1e                  WF_ProcessEvent
 .text            0x017c12         0xe4 x_compose.o
                  0x017c12                  postSensorValue
 .text            0x017cf6         0xd4 WF_Spi.o
                  0x017cf6                  WF_SpiInit
                  0x017d16                  WF_SpiEnableChipSelect
                  0x017d1e                  WF_SpiDisableChipSelect
                  0x017d28                  WFSpiTxRx
 .text            0x017dca         0xc6 WF_Utils.o
                  0x017dca                  WF_Connect
 .text            0x017e90         0xb4 WFScan.o
                  0x017eb6                  WF_Scan
                  0x017ef4                  WF_ScanGetResult
 .text            0x017f44         0x9a WF_Eint.o
                  0x017f44                  WF_EintIsDisabled
                  0x017f56                  WF_EintIsPending
                  0x017f78                  _INT1Interrupt
                  0x017fb2                  WF_EintEnable
                  0x017fc4                  WF_EintDisable
                  0x017fcc                  WF_EintInit
 .text            0x017fde         0x98 x_i2c_devices.o
                  0x017fde                  set_register
                  0x01803a                  read_register
 .text            0x018076         0x88 WFTxPower.o
                  0x018076                  WF_TxPowerSetMax
                  0x0180b8                  WF_TxPowerGetMax
                  0x0180e4                  WF_TxPowerGetFactoryMax
 .text            0x0180fe         0x84 x_analog_in.o
                  0x0180fe                  x_analog_in.o:_An_i_ctor
                  0x018114                  x_analog_in.o:_An_i_dtor
                  0x01813a                  x_analog_in.o:_An_i_attach
                  0x01815c                  x_analog_in.o:_An_i_getan_i
 .text            0x018182         0x7e ICMP.o
                  0x018182                  ICMPProcess
 .text            0x018200         0x7e WF_Events.o
                  0x018200                  OnConnectionSuccessful
                  0x018218                  OnConnectionFailed
                  0x018222                  OnConnectionTempLost
                  0x01822c                  OnConnectionReestablished
                  0x01823c                  OnConnectionPermLost
                  0x01824e                  OnScanResult
 .text            0x01827e         0x74 taskFlyport.o
                  0x01827e                  FlyportTask
 .text            0x0182f2         0x68 WFInit.o
                  0x0182f2                  WF_Init
 .text            0x01835a         0x50 portasm_PIC24.o
                  0x01835a                  vPortYield
